
EncoderReader2103.elf:     file format elf32-avr

Sections:
Idx Name          Size      VMA       LMA       File off  Algn
  0 .data         0000001c  00800100  0000133a  000013ce  2**0
                  CONTENTS, ALLOC, LOAD, DATA
  1 .text         0000133a  00000000  00000000  00000094  2**1
                  CONTENTS, ALLOC, LOAD, READONLY, CODE
  2 .bss          000001c4  0080011c  0080011c  000013ea  2**0
                  ALLOC
  3 .comment      0000005c  00000000  00000000  000013ea  2**0
                  CONTENTS, READONLY
  4 .note.gnu.avr.deviceinfo 00000040  00000000  00000000  00001448  2**2
                  CONTENTS, READONLY
  5 .debug_aranges 00000108  00000000  00000000  00001488  2**0
                  CONTENTS, READONLY, DEBUGGING
  6 .debug_info   00000b9b  00000000  00000000  00001590  2**0
                  CONTENTS, READONLY, DEBUGGING
  7 .debug_abbrev 00000625  00000000  00000000  0000212b  2**0
                  CONTENTS, READONLY, DEBUGGING
  8 .debug_line   0000095a  00000000  00000000  00002750  2**0
                  CONTENTS, READONLY, DEBUGGING
  9 .debug_frame  000002dc  00000000  00000000  000030ac  2**2
                  CONTENTS, READONLY, DEBUGGING
 10 .debug_str    00000508  00000000  00000000  00003388  2**0
                  CONTENTS, READONLY, DEBUGGING
 11 .debug_loc    000008ce  00000000  00000000  00003890  2**0
                  CONTENTS, READONLY, DEBUGGING
 12 .debug_ranges 000000c8  00000000  00000000  0000415e  2**0
                  CONTENTS, READONLY, DEBUGGING

Disassembly of section .text:

00000000 <__vectors>:
       0:	49 c0       	rjmp	.+146    	; 0x94 <__ctors_end>
       2:	00 00       	nop
       4:	65 c0       	rjmp	.+202    	; 0xd0 <__bad_interrupt>
       6:	00 00       	nop
       8:	63 c0       	rjmp	.+198    	; 0xd0 <__bad_interrupt>
       a:	00 00       	nop
       c:	61 c0       	rjmp	.+194    	; 0xd0 <__bad_interrupt>
       e:	00 00       	nop
      10:	5f c0       	rjmp	.+190    	; 0xd0 <__bad_interrupt>
      12:	00 00       	nop
      14:	5d c0       	rjmp	.+186    	; 0xd0 <__bad_interrupt>
      16:	00 00       	nop
      18:	5b c0       	rjmp	.+182    	; 0xd0 <__bad_interrupt>
      1a:	00 00       	nop
      1c:	59 c0       	rjmp	.+178    	; 0xd0 <__bad_interrupt>
      1e:	00 00       	nop
      20:	57 c0       	rjmp	.+174    	; 0xd0 <__bad_interrupt>
      22:	00 00       	nop
      24:	55 c0       	rjmp	.+170    	; 0xd0 <__bad_interrupt>
      26:	00 00       	nop
      28:	b1 c3       	rjmp	.+1890   	; 0x78c <__vector_10>
      2a:	00 00       	nop
      2c:	51 c0       	rjmp	.+162    	; 0xd0 <__bad_interrupt>
      2e:	00 00       	nop
      30:	4f c0       	rjmp	.+158    	; 0xd0 <__bad_interrupt>
      32:	00 00       	nop
      34:	4d c0       	rjmp	.+154    	; 0xd0 <__bad_interrupt>
      36:	00 00       	nop
      38:	4b c0       	rjmp	.+150    	; 0xd0 <__bad_interrupt>
      3a:	00 00       	nop
      3c:	9d c3       	rjmp	.+1850   	; 0x778 <__vector_15>
      3e:	00 00       	nop
      40:	47 c0       	rjmp	.+142    	; 0xd0 <__bad_interrupt>
      42:	00 00       	nop
      44:	30 c2       	rjmp	.+1120   	; 0x4a6 <__vector_17>
      46:	00 00       	nop
      48:	44 c0       	rjmp	.+136    	; 0xd2 <__vector_18>
      4a:	00 00       	nop
      4c:	41 c0       	rjmp	.+130    	; 0xd0 <__bad_interrupt>
      4e:	00 00       	nop
      50:	3f c0       	rjmp	.+126    	; 0xd0 <__bad_interrupt>
      52:	00 00       	nop
      54:	3d c0       	rjmp	.+122    	; 0xd0 <__bad_interrupt>
      56:	00 00       	nop
      58:	3b c0       	rjmp	.+118    	; 0xd0 <__bad_interrupt>
      5a:	00 00       	nop
      5c:	39 c0       	rjmp	.+114    	; 0xd0 <__bad_interrupt>
      5e:	00 00       	nop
      60:	37 c0       	rjmp	.+110    	; 0xd0 <__bad_interrupt>
      62:	00 00       	nop
      64:	35 c0       	rjmp	.+106    	; 0xd0 <__bad_interrupt>
      66:	00 00       	nop
      68:	33 c0       	rjmp	.+102    	; 0xd0 <__bad_interrupt>
      6a:	00 00       	nop
      6c:	31 c0       	rjmp	.+98     	; 0xd0 <__bad_interrupt>
      6e:	00 00       	nop
      70:	2f c0       	rjmp	.+94     	; 0xd0 <__bad_interrupt>
      72:	00 00       	nop
      74:	2d c0       	rjmp	.+90     	; 0xd0 <__bad_interrupt>
      76:	00 00       	nop
      78:	2b c0       	rjmp	.+86     	; 0xd0 <__bad_interrupt>
      7a:	00 00       	nop
      7c:	af c3       	rjmp	.+1886   	; 0x7dc <__vector_31>
      7e:	00 00       	nop
      80:	27 c0       	rjmp	.+78     	; 0xd0 <__bad_interrupt>
      82:	00 00       	nop
      84:	25 c0       	rjmp	.+74     	; 0xd0 <__bad_interrupt>
      86:	00 00       	nop
      88:	23 c0       	rjmp	.+70     	; 0xd0 <__bad_interrupt>
      8a:	00 00       	nop
      8c:	21 c0       	rjmp	.+66     	; 0xd0 <__bad_interrupt>
      8e:	00 00       	nop
      90:	1f c0       	rjmp	.+62     	; 0xd0 <__bad_interrupt>
	...

00000094 <__ctors_end>:
      94:	11 24       	eor	r1, r1
      96:	1f be       	out	0x3f, r1	; 63
      98:	cf ef       	ldi	r28, 0xFF	; 255
      9a:	d0 e1       	ldi	r29, 0x10	; 16
      9c:	de bf       	out	0x3e, r29	; 62
      9e:	cd bf       	out	0x3d, r28	; 61

000000a0 <__do_copy_data>:
      a0:	11 e0       	ldi	r17, 0x01	; 1
      a2:	a0 e0       	ldi	r26, 0x00	; 0
      a4:	b1 e0       	ldi	r27, 0x01	; 1
      a6:	ea e3       	ldi	r30, 0x3A	; 58
      a8:	f3 e1       	ldi	r31, 0x13	; 19
      aa:	00 e0       	ldi	r16, 0x00	; 0
      ac:	0b bf       	out	0x3b, r16	; 59
      ae:	02 c0       	rjmp	.+4      	; 0xb4 <__do_copy_data+0x14>
      b0:	07 90       	elpm	r0, Z+
      b2:	0d 92       	st	X+, r0
      b4:	ac 31       	cpi	r26, 0x1C	; 28
      b6:	b1 07       	cpc	r27, r17
      b8:	d9 f7       	brne	.-10     	; 0xb0 <__do_copy_data+0x10>

000000ba <__do_clear_bss>:
      ba:	22 e0       	ldi	r18, 0x02	; 2
      bc:	ac e1       	ldi	r26, 0x1C	; 28
      be:	b1 e0       	ldi	r27, 0x01	; 1
      c0:	01 c0       	rjmp	.+2      	; 0xc4 <.do_clear_bss_start>

000000c2 <.do_clear_bss_loop>:
      c2:	1d 92       	st	X+, r1

000000c4 <.do_clear_bss_start>:
      c4:	a0 3e       	cpi	r26, 0xE0	; 224
      c6:	b2 07       	cpc	r27, r18
      c8:	e1 f7       	brne	.-8      	; 0xc2 <.do_clear_bss_loop>
      ca:	8c d2       	rcall	.+1304   	; 0x5e4 <main>
      cc:	0c 94 9b 09 	jmp	0x1336	; 0x1336 <_exit>

000000d0 <__bad_interrupt>:
      d0:	97 cf       	rjmp	.-210    	; 0x0 <__vectors>

000000d2 <__vector_18>:
	if (rx_on != rx_off) {
		rx_off++;
	}

	return true;
}
      d2:	1f 92       	push	r1
      d4:	0f 92       	push	r0
      d6:	0f b6       	in	r0, 0x3f	; 63
      d8:	0f 92       	push	r0
      da:	11 24       	eor	r1, r1
      dc:	0b b6       	in	r0, 0x3b	; 59
      de:	0f 92       	push	r0
      e0:	2f 93       	push	r18
      e2:	3f 93       	push	r19
      e4:	4f 93       	push	r20
      e6:	5f 93       	push	r21
      e8:	6f 93       	push	r22
      ea:	8f 93       	push	r24
      ec:	9f 93       	push	r25
      ee:	af 93       	push	r26
      f0:	bf 93       	push	r27
      f2:	ef 93       	push	r30
      f4:	ff 93       	push	r31
      f6:	cf 93       	push	r28
      f8:	df 93       	push	r29
      fa:	1f 92       	push	r1
      fc:	cd b7       	in	r28, 0x3d	; 61
      fe:	de b7       	in	r29, 0x3e	; 62
     100:	80 91 e0 00 	lds	r24, 0x00E0
     104:	80 ff       	sbrs	r24, 0
     106:	47 c0       	rjmp	.+142    	; 0x196 <__vector_18+0xc4>
     108:	90 91 de 00 	lds	r25, 0x00DE
     10c:	90 ff       	sbrs	r25, 0
     10e:	43 c0       	rjmp	.+134    	; 0x196 <__vector_18+0xc4>
     110:	10 92 ed 00 	sts	0x00ED, r1
     114:	ee ee       	ldi	r30, 0xEE	; 238
     116:	f0 e0       	ldi	r31, 0x00	; 0
     118:	80 81       	ld	r24, Z
     11a:	89 83       	std	Y+1, r24	; 0x01
     11c:	80 81       	ld	r24, Z
     11e:	8f 7b       	andi	r24, 0xBF	; 191
     120:	80 83       	st	Z, r24
     122:	80 91 21 01 	lds	r24, 0x0121
     126:	90 91 20 01 	lds	r25, 0x0120
     12a:	98 17       	cp	r25, r24
     12c:	89 f1       	breq	.+98     	; 0x190 <__vector_18+0xbe>
     12e:	8f 70       	andi	r24, 0x0F	; 15
     130:	2b e0       	ldi	r18, 0x0B	; 11
     132:	82 9f       	mul	r24, r18
     134:	c0 01       	movw	r24, r0
     136:	11 24       	eor	r1, r1
     138:	fc 01       	movw	r30, r24
     13a:	ee 52       	subi	r30, 0x2E	; 46
     13c:	fe 4f       	sbci	r31, 0xFE	; 254
     13e:	20 81       	ld	r18, Z
     140:	20 93 f0 00 	sts	0x00F0, r18
     144:	20 81       	ld	r18, Z
     146:	20 93 f2 00 	sts	0x00F2, r18
     14a:	21 81       	ldd	r18, Z+1	; 0x01
     14c:	20 93 f3 00 	sts	0x00F3, r18
     150:	23 81       	ldd	r18, Z+3	; 0x03
     152:	aa ef       	ldi	r26, 0xFA	; 250
     154:	b0 e0       	ldi	r27, 0x00	; 0
     156:	2c 93       	st	X, r18
     158:	24 81       	ldd	r18, Z+4	; 0x04
     15a:	2c 93       	st	X, r18
     15c:	25 81       	ldd	r18, Z+5	; 0x05
     15e:	2c 93       	st	X, r18
     160:	26 81       	ldd	r18, Z+6	; 0x06
     162:	2c 93       	st	X, r18
     164:	27 81       	ldd	r18, Z+7	; 0x07
     166:	2c 93       	st	X, r18
     168:	20 85       	ldd	r18, Z+8	; 0x08
     16a:	2c 93       	st	X, r18
     16c:	21 85       	ldd	r18, Z+9	; 0x09
     16e:	2c 93       	st	X, r18
     170:	22 85       	ldd	r18, Z+10	; 0x0a
     172:	2c 93       	st	X, r18
     174:	fc 01       	movw	r30, r24
     176:	ec 52       	subi	r30, 0x2C	; 44
     178:	fe 4f       	sbci	r31, 0xFE	; 254
     17a:	80 81       	ld	r24, Z
     17c:	8f 70       	andi	r24, 0x0F	; 15
     17e:	80 64       	ori	r24, 0x40	; 64
     180:	80 93 ef 00 	sts	0x00EF, r24
     184:	80 91 21 01 	lds	r24, 0x0121
     188:	8f 5f       	subi	r24, 0xFF	; 255
     18a:	80 93 21 01 	sts	0x0121, r24
     18e:	7d c0       	rjmp	.+250    	; 0x28a <__vector_18+0x1b8>
     190:	10 92 1f 01 	sts	0x011F, r1
     194:	7a c0       	rjmp	.+244    	; 0x28a <__vector_18+0x1b8>
     196:	81 ff       	sbrs	r24, 1
     198:	78 c0       	rjmp	.+240    	; 0x28a <__vector_18+0x1b8>
     19a:	80 91 de 00 	lds	r24, 0x00DE
     19e:	81 ff       	sbrs	r24, 1
     1a0:	74 c0       	rjmp	.+232    	; 0x28a <__vector_18+0x1b8>
     1a2:	80 e1       	ldi	r24, 0x10	; 16
     1a4:	80 93 ed 00 	sts	0x00ED, r24
     1a8:	80 91 1d 01 	lds	r24, 0x011D
     1ac:	28 2f       	mov	r18, r24
     1ae:	30 e0       	ldi	r19, 0x00	; 0
     1b0:	90 91 1e 01 	lds	r25, 0x011E
     1b4:	29 1b       	sub	r18, r25
     1b6:	31 09       	sbc	r19, r1
     1b8:	2f 77       	andi	r18, 0x7F	; 127
     1ba:	33 27       	eor	r19, r19
     1bc:	20 31       	cpi	r18, 0x10	; 16
     1be:	31 05       	cpc	r19, r1
     1c0:	0c f0       	brlt	.+2      	; 0x1c4 <__vector_18+0xf2>
     1c2:	58 c0       	rjmp	.+176    	; 0x274 <__vector_18+0x1a2>
     1c4:	e8 2f       	mov	r30, r24
     1c6:	ef 70       	andi	r30, 0x0F	; 15
     1c8:	90 91 ef 00 	lds	r25, 0x00EF
     1cc:	2e 2f       	mov	r18, r30
     1ce:	30 e0       	ldi	r19, 0x00	; 0
     1d0:	4b e0       	ldi	r20, 0x0B	; 11
     1d2:	e4 9f       	mul	r30, r20
     1d4:	f0 01       	movw	r30, r0
     1d6:	11 24       	eor	r1, r1
     1d8:	ee 5d       	subi	r30, 0xDE	; 222
     1da:	fe 4f       	sbci	r31, 0xFE	; 254
     1dc:	9f 70       	andi	r25, 0x0F	; 15
     1de:	42 81       	ldd	r20, Z+2	; 0x02
     1e0:	40 7f       	andi	r20, 0xF0	; 240
     1e2:	94 2b       	or	r25, r20
     1e4:	92 83       	std	Z+2, r25	; 0x02
     1e6:	90 91 f2 00 	lds	r25, 0x00F2
     1ea:	40 91 f0 00 	lds	r20, 0x00F0
     1ee:	47 70       	andi	r20, 0x07	; 7
     1f0:	90 7e       	andi	r25, 0xE0	; 224
     1f2:	94 2b       	or	r25, r20
     1f4:	90 83       	st	Z, r25
     1f6:	90 91 f3 00 	lds	r25, 0x00F3
     1fa:	91 83       	std	Z+1, r25	; 0x01
     1fc:	aa ef       	ldi	r26, 0xFA	; 250
     1fe:	b0 e0       	ldi	r27, 0x00	; 0
     200:	9c 91       	ld	r25, X
     202:	93 83       	std	Z+3, r25	; 0x03
     204:	9c 91       	ld	r25, X
     206:	94 83       	std	Z+4, r25	; 0x04
     208:	9c 91       	ld	r25, X
     20a:	95 83       	std	Z+5, r25	; 0x05
     20c:	9c 91       	ld	r25, X
     20e:	96 83       	std	Z+6, r25	; 0x06
     210:	9c 91       	ld	r25, X
     212:	97 83       	std	Z+7, r25	; 0x07
     214:	9c 91       	ld	r25, X
     216:	90 87       	std	Z+8, r25	; 0x08
     218:	9c 91       	ld	r25, X
     21a:	91 87       	std	Z+9, r25	; 0x09
     21c:	9c 91       	ld	r25, X
     21e:	92 87       	std	Z+10, r25	; 0x0a
     220:	8f 5f       	subi	r24, 0xFF	; 255
     222:	80 93 1d 01 	sts	0x011D, r24
     226:	40 81       	ld	r20, Z
     228:	42 95       	swap	r20
     22a:	46 95       	lsr	r20
     22c:	47 70       	andi	r20, 0x07	; 7
     22e:	51 81       	ldd	r21, Z+1	; 0x01
     230:	65 2f       	mov	r22, r21
     232:	66 0f       	add	r22, r22
     234:	66 0f       	add	r22, r22
     236:	66 0f       	add	r22, r22
     238:	86 2f       	mov	r24, r22
     23a:	84 2b       	or	r24, r20
     23c:	95 2f       	mov	r25, r21
     23e:	92 95       	swap	r25
     240:	96 95       	lsr	r25
     242:	97 70       	andi	r25, 0x07	; 7
     244:	89 2b       	or	r24, r25
     246:	b1 f4       	brne	.+44     	; 0x274 <__vector_18+0x1a2>
     248:	8b e0       	ldi	r24, 0x0B	; 11
     24a:	82 9f       	mul	r24, r18
     24c:	f0 01       	movw	r30, r0
     24e:	83 9f       	mul	r24, r19
     250:	f0 0d       	add	r31, r0
     252:	11 24       	eor	r1, r1
     254:	ee 5d       	subi	r30, 0xDE	; 222
     256:	fe 4f       	sbci	r31, 0xFE	; 254
     258:	83 81       	ldd	r24, Z+3	; 0x03
     25a:	83 30       	cpi	r24, 0x03	; 3
     25c:	59 f4       	brne	.+22     	; 0x274 <__vector_18+0x1a2>
     25e:	98 e0       	ldi	r25, 0x08	; 8
     260:	88 e1       	ldi	r24, 0x18	; 24
     262:	0f b6       	in	r0, 0x3f	; 63
     264:	f8 94       	cli
     266:	a8 95       	wdr
     268:	80 93 60 00 	sts	0x0060, r24
     26c:	0f be       	out	0x3f, r0	; 63
     26e:	90 93 60 00 	sts	0x0060, r25
     272:	ff cf       	rjmp	.-2      	; 0x272 <__vector_18+0x1a0>
     274:	ee ee       	ldi	r30, 0xEE	; 238
     276:	f0 e0       	ldi	r31, 0x00	; 0
     278:	80 81       	ld	r24, Z
     27a:	89 83       	std	Y+1, r24	; 0x01
     27c:	89 81       	ldd	r24, Y+1	; 0x01
     27e:	80 81       	ld	r24, Z
     280:	8f 7d       	andi	r24, 0xDF	; 223
     282:	80 83       	st	Z, r24
     284:	80 e8       	ldi	r24, 0x80	; 128
     286:	80 93 ef 00 	sts	0x00EF, r24
     28a:	0f 90       	pop	r0
     28c:	df 91       	pop	r29
     28e:	cf 91       	pop	r28
     290:	ff 91       	pop	r31
     292:	ef 91       	pop	r30
     294:	bf 91       	pop	r27
     296:	af 91       	pop	r26
     298:	9f 91       	pop	r25
     29a:	8f 91       	pop	r24
     29c:	6f 91       	pop	r22
     29e:	5f 91       	pop	r21
     2a0:	4f 91       	pop	r20
     2a2:	3f 91       	pop	r19
     2a4:	2f 91       	pop	r18
     2a6:	0f 90       	pop	r0
     2a8:	0b be       	out	0x3b, r0	; 59
     2aa:	0f 90       	pop	r0
     2ac:	0f be       	out	0x3f, r0	; 63
     2ae:	0f 90       	pop	r0
     2b0:	1f 90       	pop	r1
     2b2:	18 95       	reti

000002b4 <can_init>:
     2b4:	cf 93       	push	r28
     2b6:	df 93       	push	r29
     2b8:	e8 ed       	ldi	r30, 0xD8	; 216
     2ba:	f0 e0       	ldi	r31, 0x00	; 0
     2bc:	21 e0       	ldi	r18, 0x01	; 1
     2be:	20 83       	st	Z, r18
     2c0:	2e ef       	ldi	r18, 0xFE	; 254
     2c2:	20 93 e2 00 	sts	0x00E2, r18
     2c6:	2c e0       	ldi	r18, 0x0C	; 12
     2c8:	20 93 e3 00 	sts	0x00E3, r18
     2cc:	27 e3       	ldi	r18, 0x37	; 55
     2ce:	20 93 e4 00 	sts	0x00E4, r18
     2d2:	10 92 e7 00 	sts	0x00E7, r1
     2d6:	10 92 e6 00 	sts	0x00E6, r1
     2da:	10 92 e9 00 	sts	0x00E9, r1
     2de:	10 92 e8 00 	sts	0x00E8, r1
     2e2:	10 92 ec 00 	sts	0x00EC, r1
     2e6:	10 92 e5 00 	sts	0x00E5, r1
     2ea:	cd ee       	ldi	r28, 0xED	; 237
     2ec:	d0 e0       	ldi	r29, 0x00	; 0
     2ee:	18 82       	st	Y, r1
     2f0:	ae ee       	ldi	r26, 0xEE	; 238
     2f2:	b0 e0       	ldi	r27, 0x00	; 0
     2f4:	1c 92       	st	X, r1
     2f6:	20 e1       	ldi	r18, 0x10	; 16
     2f8:	28 83       	st	Y, r18
     2fa:	1c 92       	st	X, r1
     2fc:	10 92 f4 00 	sts	0x00F4, r1
     300:	28 2f       	mov	r18, r24
     302:	22 95       	swap	r18
     304:	22 0f       	add	r18, r18
     306:	20 7e       	andi	r18, 0xE0	; 224
     308:	20 93 f6 00 	sts	0x00F6, r18
     30c:	96 95       	lsr	r25
     30e:	87 95       	ror	r24
     310:	96 95       	lsr	r25
     312:	87 95       	ror	r24
     314:	96 95       	lsr	r25
     316:	87 95       	ror	r24
     318:	80 93 f7 00 	sts	0x00F7, r24
     31c:	10 92 f0 00 	sts	0x00F0, r1
     320:	86 2f       	mov	r24, r22
     322:	82 95       	swap	r24
     324:	88 0f       	add	r24, r24
     326:	80 7e       	andi	r24, 0xE0	; 224
     328:	80 93 f2 00 	sts	0x00F2, r24
     32c:	76 95       	lsr	r23
     32e:	67 95       	ror	r22
     330:	76 95       	lsr	r23
     332:	67 95       	ror	r22
     334:	76 95       	lsr	r23
     336:	67 95       	ror	r22
     338:	60 93 f3 00 	sts	0x00F3, r22
     33c:	80 e8       	ldi	r24, 0x80	; 128
     33e:	80 93 ef 00 	sts	0x00EF, r24
     342:	83 e0       	ldi	r24, 0x03	; 3
     344:	80 93 dc 00 	sts	0x00DC, r24
     348:	80 93 de 00 	sts	0x00DE, r24
     34c:	80 eb       	ldi	r24, 0xB0	; 176
     34e:	80 93 db 00 	sts	0x00DB, r24
     352:	82 e0       	ldi	r24, 0x02	; 2
     354:	80 83       	st	Z, r24
     356:	10 92 1c 01 	sts	0x011C, r1
     35a:	df 91       	pop	r29
     35c:	cf 91       	pop	r28
     35e:	08 95       	ret

00000360 <can_send_message>:

bool can_send_message(CanMessage_t* message) {
     360:	cf 93       	push	r28
     362:	df 93       	push	r29
     364:	fc 01       	movw	r30, r24
	bool result = false;

	CANGIE &= ~(1 << ENIT);
     366:	ab ed       	ldi	r26, 0xDB	; 219
     368:	b0 e0       	ldi	r27, 0x00	; 0
     36a:	8c 91       	ld	r24, X
     36c:	8f 77       	andi	r24, 0x7F	; 127
     36e:	8c 93       	st	X, r24

	if (!tx_busy) {
     370:	80 91 1f 01 	lds	r24, 0x011F
     374:	81 11       	cpse	r24, r1
     376:	27 c0       	rjmp	.+78     	; 0x3c6 <can_send_message+0x66>
		// Switch to Mob 0 access
		CANPAGE = 0 << 4;
     378:	10 92 ed 00 	sts	0x00ED, r1

		// Set ID
		CANIDT2 = message->id << 5;
     37c:	80 81       	ld	r24, Z
     37e:	82 95       	swap	r24
     380:	88 0f       	add	r24, r24
     382:	80 7e       	andi	r24, 0xE0	; 224
     384:	80 93 f2 00 	sts	0x00F2, r24
		CANIDT1 = message->id >> 3;
     388:	80 81       	ld	r24, Z
     38a:	91 81       	ldd	r25, Z+1	; 0x01
     38c:	96 95       	lsr	r25
     38e:	87 95       	ror	r24
     390:	96 95       	lsr	r25
     392:	87 95       	ror	r24
     394:	96 95       	lsr	r25
     396:	87 95       	ror	r24
     398:	80 93 f3 00 	sts	0x00F3, r24
     39c:	df 01       	movw	r26, r30
     39e:	13 96       	adiw	r26, 0x03	; 3
     3a0:	9f 01       	movw	r18, r30
     3a2:	25 5f       	subi	r18, 0xF5	; 245
     3a4:	3f 4f       	sbci	r19, 0xFF	; 255

		// Program data registers - auto increment
		for (int i = 0; i < 8; i++) {
			CANMSG = message->data[i];
     3a6:	ca ef       	ldi	r28, 0xFA	; 250
     3a8:	d0 e0       	ldi	r29, 0x00	; 0
     3aa:	9d 91       	ld	r25, X+
     3ac:	98 83       	st	Y, r25
		// Set ID
		CANIDT2 = message->id << 5;
		CANIDT1 = message->id >> 3;

		// Program data registers - auto increment
		for (int i = 0; i < 8; i++) {
     3ae:	a2 17       	cp	r26, r18
     3b0:	b3 07       	cpc	r27, r19
     3b2:	d9 f7       	brne	.-10     	; 0x3aa <can_send_message+0x4a>
			CANMSG = message->data[i];
		}
		
		result = true;
		tx_busy = 1;
     3b4:	81 e0       	ldi	r24, 0x01	; 1
     3b6:	80 93 1f 01 	sts	0x011F, r24

		// Set length, start send which restarts tx interrupt
		CANCDMOB = (1 << CONMOB0) | message->length;
     3ba:	82 81       	ldd	r24, Z+2	; 0x02
     3bc:	80 64       	ori	r24, 0x40	; 64
     3be:	80 93 ef 00 	sts	0x00EF, r24
		// Program data registers - auto increment
		for (int i = 0; i < 8; i++) {
			CANMSG = message->data[i];
		}
		
		result = true;
     3c2:	81 e0       	ldi	r24, 0x01	; 1
     3c4:	3c c0       	rjmp	.+120    	; 0x43e <can_send_message+0xde>
		tx_busy = 1;

		// Set length, start send which restarts tx interrupt
		CANCDMOB = (1 << CONMOB0) | message->length;
	}
	else if (TX_SIZE - ((tx_on - tx_off) & TX_ABS_MASK)) {
     3c6:	20 91 20 01 	lds	r18, 0x0120
     3ca:	82 2f       	mov	r24, r18
     3cc:	90 e0       	ldi	r25, 0x00	; 0
     3ce:	30 91 21 01 	lds	r19, 0x0121
     3d2:	83 1b       	sub	r24, r19
     3d4:	91 09       	sbc	r25, r1
     3d6:	8f 77       	andi	r24, 0x7F	; 127
     3d8:	99 27       	eor	r25, r25
     3da:	40 97       	sbiw	r24, 0x10	; 16
     3dc:	79 f1       	breq	.+94     	; 0x43c <can_send_message+0xdc>
		// Copy data into TX buffer
		tx_frames[tx_on & (TX_SIZE-1)].id = message->id;
     3de:	a2 2f       	mov	r26, r18
     3e0:	af 70       	andi	r26, 0x0F	; 15
     3e2:	8b e0       	ldi	r24, 0x0B	; 11
     3e4:	a8 9f       	mul	r26, r24
     3e6:	d0 01       	movw	r26, r0
     3e8:	11 24       	eor	r1, r1
     3ea:	ed 01       	movw	r28, r26
     3ec:	ce 52       	subi	r28, 0x2E	; 46
     3ee:	de 4f       	sbci	r29, 0xFE	; 254
     3f0:	80 81       	ld	r24, Z
     3f2:	38 2f       	mov	r19, r24
     3f4:	32 95       	swap	r19
     3f6:	33 0f       	add	r19, r19
     3f8:	30 7e       	andi	r19, 0xE0	; 224
     3fa:	98 81       	ld	r25, Y
     3fc:	9f 71       	andi	r25, 0x1F	; 31
     3fe:	93 2b       	or	r25, r19
     400:	98 83       	st	Y, r25
     402:	91 81       	ldd	r25, Z+1	; 0x01
     404:	92 95       	swap	r25
     406:	99 0f       	add	r25, r25
     408:	90 7e       	andi	r25, 0xE0	; 224
     40a:	86 95       	lsr	r24
     40c:	86 95       	lsr	r24
     40e:	86 95       	lsr	r24
     410:	89 2b       	or	r24, r25
     412:	89 83       	std	Y+1, r24	; 0x01
		tx_frames[tx_on & (TX_SIZE-1)].length = message->length;
     414:	82 81       	ldd	r24, Z+2	; 0x02
     416:	98 2f       	mov	r25, r24
     418:	9f 70       	andi	r25, 0x0F	; 15
     41a:	8a 81       	ldd	r24, Y+2	; 0x02
     41c:	80 7f       	andi	r24, 0xF0	; 240
     41e:	89 2b       	or	r24, r25
     420:	8a 83       	std	Y+2, r24	; 0x02
		memcpy(tx_frames[tx_on & (TX_SIZE-1)].data, message->data, CAN_FRAME_DATA_MAX_LENGTH);
     422:	ab 52       	subi	r26, 0x2B	; 43
     424:	be 4f       	sbci	r27, 0xFE	; 254
     426:	88 e0       	ldi	r24, 0x08	; 8
     428:	33 96       	adiw	r30, 0x03	; 3
     42a:	01 90       	ld	r0, Z+
     42c:	0d 92       	st	X+, r0
     42e:	8a 95       	dec	r24
     430:	e1 f7       	brne	.-8      	; 0x42a <can_send_message+0xca>

		/*for (int i = 0; i < 8; i++) {
			tx_frames[tx_on & (TX_SIZE-1)].data[i] = message->data[i];
		}*/

		tx_on++;
     432:	2f 5f       	subi	r18, 0xFF	; 255
     434:	20 93 20 01 	sts	0x0120, r18
		result = true;
     438:	81 e0       	ldi	r24, 0x01	; 1
     43a:	01 c0       	rjmp	.+2      	; 0x43e <can_send_message+0xde>

	return true;
}

bool can_send_message(CanMessage_t* message) {
	bool result = false;
     43c:	80 e0       	ldi	r24, 0x00	; 0

		tx_on++;
		result = true;
	}

	CANGIE |= (1 << ENIT);
     43e:	eb ed       	ldi	r30, 0xDB	; 219
     440:	f0 e0       	ldi	r31, 0x00	; 0
     442:	90 81       	ld	r25, Z
     444:	90 68       	ori	r25, 0x80	; 128
     446:	90 83       	st	Z, r25

	return result;
     448:	df 91       	pop	r29
     44a:	cf 91       	pop	r28
     44c:	08 95       	ret

0000044e <timer_init>:
	elapsed_microseconds[timer] = 0;
	timer_enabled[timer] = true;
}

void timer_stop(timer_t timer) {
	timer_enabled[timer] = false;
     44e:	14 bc       	out	0x24, r1	; 36
     450:	81 e0       	ldi	r24, 0x01	; 1
     452:	80 93 6e 00 	sts	0x006E, r24
     456:	84 b5       	in	r24, 0x24	; 36
     458:	84 60       	ori	r24, 0x04	; 4
     45a:	84 bd       	out	0x24, r24	; 36
     45c:	08 95       	ret

0000045e <timer_start>:
     45e:	90 e0       	ldi	r25, 0x00	; 0
     460:	fc 01       	movw	r30, r24
     462:	ee 0f       	add	r30, r30
     464:	ff 1f       	adc	r31, r31
     466:	ee 0f       	add	r30, r30
     468:	ff 1f       	adc	r31, r31
     46a:	ee 57       	subi	r30, 0x7E	; 126
     46c:	fd 4f       	sbci	r31, 0xFD	; 253
     46e:	10 82       	st	Z, r1
     470:	11 82       	std	Z+1, r1	; 0x01
     472:	12 82       	std	Z+2, r1	; 0x02
     474:	13 82       	std	Z+3, r1	; 0x03
     476:	fc 01       	movw	r30, r24
     478:	ee 55       	subi	r30, 0x5E	; 94
     47a:	fd 4f       	sbci	r31, 0xFD	; 253
     47c:	21 e0       	ldi	r18, 0x01	; 1
     47e:	20 83       	st	Z, r18
     480:	08 95       	ret

00000482 <timer_elapsed_ms>:
}

uint16_t timer_elapsed_ms(timer_t timer) {
	return elapsed_microseconds[timer] / 1000;
     482:	24 e0       	ldi	r18, 0x04	; 4
     484:	82 9f       	mul	r24, r18
     486:	c0 01       	movw	r24, r0
     488:	11 24       	eor	r1, r1
     48a:	fc 01       	movw	r30, r24
     48c:	ee 57       	subi	r30, 0x7E	; 126
     48e:	fd 4f       	sbci	r31, 0xFD	; 253
     490:	60 81       	ld	r22, Z
     492:	71 81       	ldd	r23, Z+1	; 0x01
     494:	82 81       	ldd	r24, Z+2	; 0x02
     496:	93 81       	ldd	r25, Z+3	; 0x03
     498:	28 ee       	ldi	r18, 0xE8	; 232
     49a:	33 e0       	ldi	r19, 0x03	; 3
     49c:	40 e0       	ldi	r20, 0x00	; 0
     49e:	50 e0       	ldi	r21, 0x00	; 0
     4a0:	e3 d2       	rcall	.+1478   	; 0xa68 <__udivmodsi4>
}
     4a2:	c9 01       	movw	r24, r18
     4a4:	08 95       	ret

000004a6 <__vector_17>:

ISR(TIMER0_OVF_vect) {
     4a6:	1f 92       	push	r1
     4a8:	0f 92       	push	r0
     4aa:	0f b6       	in	r0, 0x3f	; 63
     4ac:	0f 92       	push	r0
     4ae:	11 24       	eor	r1, r1
     4b0:	0b b6       	in	r0, 0x3b	; 59
     4b2:	0f 92       	push	r0
     4b4:	2f 93       	push	r18
     4b6:	3f 93       	push	r19
     4b8:	4f 93       	push	r20
     4ba:	5f 93       	push	r21
     4bc:	6f 93       	push	r22
     4be:	7f 93       	push	r23
     4c0:	8f 93       	push	r24
     4c2:	af 93       	push	r26
     4c4:	bf 93       	push	r27
     4c6:	ef 93       	push	r30
     4c8:	ff 93       	push	r31
     4ca:	a2 ea       	ldi	r26, 0xA2	; 162
     4cc:	b2 e0       	ldi	r27, 0x02	; 2
     4ce:	e2 e8       	ldi	r30, 0x82	; 130
     4d0:	f2 e0       	ldi	r31, 0x02	; 2
     4d2:	22 ea       	ldi	r18, 0xA2	; 162
     4d4:	32 e0       	ldi	r19, 0x02	; 2
	for (int t = 0; t < NUMBER_OF_TIMERS; t++) {
		if (timer_enabled[t]){
     4d6:	8d 91       	ld	r24, X+
     4d8:	88 23       	and	r24, r24
     4da:	59 f0       	breq	.+22     	; 0x4f2 <__vector_17+0x4c>
			elapsed_microseconds[t] += (1000000ULL * 256 * 256) / F_CPU;
     4dc:	40 81       	ld	r20, Z
     4de:	51 81       	ldd	r21, Z+1	; 0x01
     4e0:	62 81       	ldd	r22, Z+2	; 0x02
     4e2:	73 81       	ldd	r23, Z+3	; 0x03
     4e4:	50 5e       	subi	r21, 0xE0	; 224
     4e6:	6f 4f       	sbci	r22, 0xFF	; 255
     4e8:	7f 4f       	sbci	r23, 0xFF	; 255
     4ea:	40 83       	st	Z, r20
     4ec:	51 83       	std	Z+1, r21	; 0x01
     4ee:	62 83       	std	Z+2, r22	; 0x02
     4f0:	73 83       	std	Z+3, r23	; 0x03
     4f2:	34 96       	adiw	r30, 0x04	; 4
uint16_t timer_elapsed_ms(timer_t timer) {
	return elapsed_microseconds[timer] / 1000;
}

ISR(TIMER0_OVF_vect) {
	for (int t = 0; t < NUMBER_OF_TIMERS; t++) {
     4f4:	e2 17       	cp	r30, r18
     4f6:	f3 07       	cpc	r31, r19
     4f8:	71 f7       	brne	.-36     	; 0x4d6 <__vector_17+0x30>
		if (timer_enabled[t]){
			elapsed_microseconds[t] += (1000000ULL * 256 * 256) / F_CPU;
		}
	}
}
     4fa:	ff 91       	pop	r31
     4fc:	ef 91       	pop	r30
     4fe:	bf 91       	pop	r27
     500:	af 91       	pop	r26
     502:	8f 91       	pop	r24
     504:	7f 91       	pop	r23
     506:	6f 91       	pop	r22
     508:	5f 91       	pop	r21
     50a:	4f 91       	pop	r20
     50c:	3f 91       	pop	r19
     50e:	2f 91       	pop	r18
     510:	0f 90       	pop	r0
     512:	0b be       	out	0x3b, r0	; 59
     514:	0f 90       	pop	r0
     516:	0f be       	out	0x3f, r0	; 63
     518:	0f 90       	pop	r0
     51a:	1f 90       	pop	r1
     51c:	18 95       	reti

0000051e <usbdbg_tx_char>:
	fdevopen(usbdbg_tx_char, NULL);
}

int usbdbg_tx_char(char c, FILE* stream)
{
	while (!(UCSR0A & (1 << UDRE0))) { }; // Wait until data register is empty
     51e:	e0 ec       	ldi	r30, 0xC0	; 192
     520:	f0 e0       	ldi	r31, 0x00	; 0
     522:	90 81       	ld	r25, Z
     524:	95 ff       	sbrs	r25, 5
     526:	fd cf       	rjmp	.-6      	; 0x522 <usbdbg_tx_char+0x4>
	UDR0 = c;
     528:	80 93 c6 00 	sts	0x00C6, r24
	return 1;
}
     52c:	81 e0       	ldi	r24, 0x01	; 1
     52e:	90 e0       	ldi	r25, 0x00	; 0
     530:	08 95       	ret

00000532 <usbdbg_init>:
#include <stdlib.h>

void usbdbg_init()
{
	const uint32_t baud_rate = 19200;
	UBRR0 = (F_CPU / 16) / baud_rate - 1;
     532:	89 e1       	ldi	r24, 0x19	; 25
     534:	90 e0       	ldi	r25, 0x00	; 0
     536:	90 93 c5 00 	sts	0x00C5, r25
     53a:	80 93 c4 00 	sts	0x00C4, r24
	UCSR0C = (3 << UCSZ0);	// 8 bit transfer
     53e:	86 e0       	ldi	r24, 0x06	; 6
     540:	80 93 c2 00 	sts	0x00C2, r24
	UCSR0B |= (1 << TXEN0)|(1<<RXEN0)|(1<<RXCIE0); // Enable receive and transmit
     544:	e1 ec       	ldi	r30, 0xC1	; 193
     546:	f0 e0       	ldi	r31, 0x00	; 0
     548:	80 81       	ld	r24, Z
     54a:	88 69       	ori	r24, 0x98	; 152
     54c:	80 83       	st	Z, r24
	
	fdevopen(usbdbg_tx_char, NULL);
     54e:	60 e0       	ldi	r22, 0x00	; 0
     550:	70 e0       	ldi	r23, 0x00	; 0
     552:	8f e8       	ldi	r24, 0x8F	; 143
     554:	92 e0       	ldi	r25, 0x02	; 2
     556:	aa c2       	rjmp	.+1364   	; 0xaac <fdevopen>
     558:	08 95       	ret

0000055a <pin_init>:
	{
		output = 0xFFFF;	
	}*/
	
	return output;
}
     55a:	8d b1       	in	r24, 0x0d	; 13
     55c:	88 7f       	andi	r24, 0xF8	; 248
     55e:	8d b9       	out	0x0d, r24	; 13
     560:	84 b1       	in	r24, 0x04	; 4
     562:	88 7f       	andi	r24, 0xF8	; 248
     564:	84 b9       	out	0x04, r24	; 4
     566:	8b 9a       	sbi	0x11, 3	; 17
     568:	2b 9a       	sbi	0x05, 3	; 5
     56a:	08 95       	ret

0000056c <calculate_rpm_wheel>:

uint16_t calculate_rpm_wheel(uint32_t count)
{
     56c:	9b 01       	movw	r18, r22
     56e:	ac 01       	movw	r20, r24
	uint32_t output = 0;
	if (count >= 200)
     570:	68 3c       	cpi	r22, 0xC8	; 200
     572:	71 05       	cpc	r23, r1
     574:	81 05       	cpc	r24, r1
     576:	91 05       	cpc	r25, r1
     578:	40 f0       	brcs	.+16     	; 0x58a <calculate_rpm_wheel+0x1e>
	{
		output = WHEEL_COUNT_CONSTANT/count;
     57a:	6e e0       	ldi	r22, 0x0E	; 14
     57c:	77 e2       	ldi	r23, 0x27	; 39
     57e:	87 e0       	ldi	r24, 0x07	; 7
     580:	90 e0       	ldi	r25, 0x00	; 0
     582:	72 d2       	rcall	.+1252   	; 0xa68 <__udivmodsi4>
     584:	da 01       	movw	r26, r20
     586:	c9 01       	movw	r24, r18
     588:	08 95       	ret
	} else if (count > WHEEL_COUNT_CONSTANT)
     58a:	2f 30       	cpi	r18, 0x0F	; 15
     58c:	37 42       	sbci	r19, 0x27	; 39
     58e:	47 40       	sbci	r20, 0x07	; 7
     590:	51 05       	cpc	r21, r1
     592:	28 f4       	brcc	.+10     	; 0x59e <calculate_rpm_wheel+0x32>
	{
		output = 0;
	} else 
	{
		output = 0xFFFF;	
     594:	8f ef       	ldi	r24, 0xFF	; 255
     596:	9f ef       	ldi	r25, 0xFF	; 255
     598:	a0 e0       	ldi	r26, 0x00	; 0
     59a:	b0 e0       	ldi	r27, 0x00	; 0
     59c:	08 95       	ret
	if (count >= 200)
	{
		output = WHEEL_COUNT_CONSTANT/count;
	} else if (count > WHEEL_COUNT_CONSTANT)
	{
		output = 0;
     59e:	80 e0       	ldi	r24, 0x00	; 0
     5a0:	90 e0       	ldi	r25, 0x00	; 0
     5a2:	dc 01       	movw	r26, r24
	{
		output = 0xFFFF;	
	}
	
	return output;
}
     5a4:	08 95       	ret

000005a6 <timers_conf>:

void timers_conf()
{
	//Enabling Timer 1 with no prescaling and overflow interrupt
	TCCR1B |= (1<<CS10);
     5a6:	e1 e8       	ldi	r30, 0x81	; 129
     5a8:	f0 e0       	ldi	r31, 0x00	; 0
     5aa:	80 81       	ld	r24, Z
     5ac:	81 60       	ori	r24, 0x01	; 1
     5ae:	80 83       	st	Z, r24
	TIMSK1 |= (1<<TOIE1);
     5b0:	ef e6       	ldi	r30, 0x6F	; 111
     5b2:	f0 e0       	ldi	r31, 0x00	; 0
     5b4:	80 81       	ld	r24, Z
     5b6:	81 60       	ori	r24, 0x01	; 1
     5b8:	80 83       	st	Z, r24
	//Enabling Timer 3 with no prescaling and overflow interrupt
	TCCR3B |= (1<<CS30);
     5ba:	e1 e9       	ldi	r30, 0x91	; 145
     5bc:	f0 e0       	ldi	r31, 0x00	; 0
     5be:	80 81       	ld	r24, Z
     5c0:	81 60       	ori	r24, 0x01	; 1
     5c2:	80 83       	st	Z, r24
	TIMSK3 |= (1<<TOIE3);
     5c4:	e1 e7       	ldi	r30, 0x71	; 113
     5c6:	f0 e0       	ldi	r31, 0x00	; 0
     5c8:	80 81       	ld	r24, Z
     5ca:	81 60       	ori	r24, 0x01	; 1
     5cc:	80 83       	st	Z, r24
	//Enabling Timer 2 with 1024 prescaling and overflow interrupt
	TCCR2A |= (1<<CS20)|(1<<CS22);
     5ce:	e0 eb       	ldi	r30, 0xB0	; 176
     5d0:	f0 e0       	ldi	r31, 0x00	; 0
     5d2:	80 81       	ld	r24, Z
     5d4:	85 60       	ori	r24, 0x05	; 5
     5d6:	80 83       	st	Z, r24
	TIMSK2 |= (1<<TOIE2);
     5d8:	e0 e7       	ldi	r30, 0x70	; 112
     5da:	f0 e0       	ldi	r31, 0x00	; 0
     5dc:	80 81       	ld	r24, Z
     5de:	81 60       	ori	r24, 0x01	; 1
     5e0:	80 83       	st	Z, r24
     5e2:	08 95       	ret

000005e4 <main>:
}

int main(void)
{
	cli();
     5e4:	f8 94       	cli
	pin_init();
     5e6:	b9 df       	rcall	.-142    	; 0x55a <pin_init>
	usbdbg_init();
     5e8:	a4 df       	rcall	.-184    	; 0x532 <usbdbg_init>
	timer_init();
     5ea:	31 df       	rcall	.-414    	; 0x44e <timer_init>
	can_init(0,0);
     5ec:	60 e0       	ldi	r22, 0x00	; 0
     5ee:	70 e0       	ldi	r23, 0x00	; 0
     5f0:	80 e0       	ldi	r24, 0x00	; 0
     5f2:	90 e0       	ldi	r25, 0x00	; 0
     5f4:	5f de       	rcall	.-834    	; 0x2b4 <can_init>
	timer_start(TIMER0);
     5f6:	80 e0       	ldi	r24, 0x00	; 0
     5f8:	32 df       	rcall	.-412    	; 0x45e <timer_start>
	timers_conf();
     5fa:	d5 df       	rcall	.-86     	; 0x5a6 <timers_conf>
	sei();
     5fc:	78 94       	sei
	
	uint8_t state = MEASURE;
    txFrame.id = ENCODER_ID;
     5fe:	eb ec       	ldi	r30, 0xCB	; 203
     600:	f2 e0       	ldi	r31, 0x02	; 2
     602:	85 e0       	ldi	r24, 0x05	; 5
     604:	90 e0       	ldi	r25, 0x00	; 0
     606:	91 83       	std	Z+1, r25	; 0x01
     608:	80 83       	st	Z, r24
	txFrame.length = 5;
     60a:	82 83       	std	Z+2, r24	; 0x02
		case MEASURE:
			//Encoder 1
			if (!(PINF&(1<<ENCODER_I_1)) && (m1_state == 0))
			{
				m1_counts++;
				m1_state = 1;
     60c:	dd 24       	eor	r13, r13
     60e:	d3 94       	inc	r13
		switch (state)
		{
		case SEND:
			cli();
			
			printf("Counts: %u,",m1_counts);
     610:	0f 2e       	mov	r0, r31
     612:	f6 e0       	ldi	r31, 0x06	; 6
     614:	ef 2e       	mov	r14, r31
     616:	f1 e0       	ldi	r31, 0x01	; 1
     618:	ff 2e       	mov	r15, r31
     61a:	f0 2d       	mov	r31, r0
			m1_rpm = calculate_rpm_motors(m1_counts);
			txFrame.data[0] = m1_rpm >> 8;
     61c:	ef 01       	movw	r28, r30
			txFrame.data[1] = m1_rpm;
			printf("RPM: %u\n",m1_rpm);
     61e:	02 e1       	ldi	r16, 0x12	; 18
     620:	11 e0       	ldi	r17, 0x01	; 1
	uint16_t time = 0;
	
	while (1) 
    {
		
		if (timer_elapsed_ms(TIMER0) > 100)
     622:	80 e0       	ldi	r24, 0x00	; 0
     624:	2e df       	rcall	.-420    	; 0x482 <timer_elapsed_ms>
     626:	85 36       	cpi	r24, 0x65	; 101
     628:	91 05       	cpc	r25, r1
     62a:	08 f4       	brcc	.+2      	; 0x62e <main+0x4a>
     62c:	7c c0       	rjmp	.+248    	; 0x726 <main+0x142>
		}
		
		switch (state)
		{
		case SEND:
			cli();
     62e:	f8 94       	cli
			
			printf("Counts: %u,",m1_counts);
     630:	80 91 bd 02 	lds	r24, 0x02BD
     634:	8f 93       	push	r24
     636:	80 91 bc 02 	lds	r24, 0x02BC
     63a:	8f 93       	push	r24
     63c:	80 91 bb 02 	lds	r24, 0x02BB
     640:	8f 93       	push	r24
     642:	80 91 ba 02 	lds	r24, 0x02BA
     646:	8f 93       	push	r24
     648:	ff 92       	push	r15
     64a:	ef 92       	push	r14
     64c:	79 d2       	rcall	.+1266   	; 0xb40 <printf>
	 *oldValue = ((*oldValue - (*oldValue >> FILTER_SHIFT) + newValue) >> FILTER_SHIFT);
}

uint16_t calculate_rpm_motors(uint32_t count)
{
	uint32_t output = count*TIME_CONSTANT;
     64e:	60 91 ba 02 	lds	r22, 0x02BA
     652:	70 91 bb 02 	lds	r23, 0x02BB
     656:	80 91 bc 02 	lds	r24, 0x02BC
     65a:	90 91 bd 02 	lds	r25, 0x02BD
     65e:	13 d1       	rcall	.+550    	; 0x886 <__floatunsisf>
     660:	2f ef       	ldi	r18, 0xFF	; 255
     662:	3f e3       	ldi	r19, 0x3F	; 63
     664:	40 e9       	ldi	r20, 0x90	; 144
     666:	5f e3       	ldi	r21, 0x3F	; 63
     668:	74 d1       	rcall	.+744    	; 0x952 <__mulsf3>
     66a:	e1 d0       	rcall	.+450    	; 0x82e <__fixunssfsi>
		{
		case SEND:
			cli();
			
			printf("Counts: %u,",m1_counts);
			m1_rpm = calculate_rpm_motors(m1_counts);
     66c:	dc 01       	movw	r26, r24
     66e:	cb 01       	movw	r24, r22
     670:	aa 27       	eor	r26, r26
     672:	bb 27       	eor	r27, r27
     674:	80 93 c7 02 	sts	0x02C7, r24
     678:	90 93 c8 02 	sts	0x02C8, r25
     67c:	a0 93 c9 02 	sts	0x02C9, r26
     680:	b0 93 ca 02 	sts	0x02CA, r27
			txFrame.data[0] = m1_rpm >> 8;
     684:	9b 83       	std	Y+3, r25	; 0x03
			txFrame.data[1] = m1_rpm;
     686:	8c 83       	std	Y+4, r24	; 0x04
			printf("RPM: %u\n",m1_rpm);
     688:	bf 93       	push	r27
     68a:	af 93       	push	r26
     68c:	9f 93       	push	r25
     68e:	8f 93       	push	r24
     690:	1f 93       	push	r17
     692:	0f 93       	push	r16
     694:	55 d2       	rcall	.+1194   	; 0xb40 <printf>
			m1_counts = 0;
     696:	10 92 ba 02 	sts	0x02BA, r1
     69a:	10 92 bb 02 	sts	0x02BB, r1
     69e:	10 92 bc 02 	sts	0x02BC, r1
     6a2:	10 92 bd 02 	sts	0x02BD, r1
	 *oldValue = ((*oldValue - (*oldValue >> FILTER_SHIFT) + newValue) >> FILTER_SHIFT);
}

uint16_t calculate_rpm_motors(uint32_t count)
{
	uint32_t output = count*TIME_CONSTANT;
     6a6:	60 91 b6 02 	lds	r22, 0x02B6
     6aa:	70 91 b7 02 	lds	r23, 0x02B7
     6ae:	80 91 b8 02 	lds	r24, 0x02B8
     6b2:	90 91 b9 02 	lds	r25, 0x02B9
     6b6:	e7 d0       	rcall	.+462    	; 0x886 <__floatunsisf>
     6b8:	2f ef       	ldi	r18, 0xFF	; 255
     6ba:	3f e3       	ldi	r19, 0x3F	; 63
     6bc:	40 e9       	ldi	r20, 0x90	; 144
     6be:	5f e3       	ldi	r21, 0x3F	; 63
     6c0:	48 d1       	rcall	.+656    	; 0x952 <__mulsf3>
     6c2:	b5 d0       	rcall	.+362    	; 0x82e <__fixunssfsi>
			txFrame.data[0] = m1_rpm >> 8;
			txFrame.data[1] = m1_rpm;
			printf("RPM: %u\n",m1_rpm);
			m1_counts = 0;
			
			m2_rpm = calculate_rpm_motors(m2_counts);
     6c4:	dc 01       	movw	r26, r24
     6c6:	cb 01       	movw	r24, r22
     6c8:	aa 27       	eor	r26, r26
     6ca:	bb 27       	eor	r27, r27
     6cc:	80 93 c3 02 	sts	0x02C3, r24
     6d0:	90 93 c4 02 	sts	0x02C4, r25
     6d4:	a0 93 c5 02 	sts	0x02C5, r26
     6d8:	b0 93 c6 02 	sts	0x02C6, r27
			txFrame.data[2] = m2_rpm >> 8;
     6dc:	9d 83       	std	Y+5, r25	; 0x05
			txFrame.data[3] = m2_rpm;
     6de:	8e 83       	std	Y+6, r24	; 0x06
			
			w_rpm = calculate_rpm_wheel(w_counts);
     6e0:	60 91 b2 02 	lds	r22, 0x02B2
     6e4:	70 91 b3 02 	lds	r23, 0x02B3
     6e8:	80 91 b4 02 	lds	r24, 0x02B4
     6ec:	90 91 b5 02 	lds	r25, 0x02B5
     6f0:	3d df       	rcall	.-390    	; 0x56c <calculate_rpm_wheel>
     6f2:	ac 01       	movw	r20, r24
     6f4:	60 e0       	ldi	r22, 0x00	; 0
     6f6:	70 e0       	ldi	r23, 0x00	; 0
     6f8:	40 93 bf 02 	sts	0x02BF, r20
     6fc:	50 93 c0 02 	sts	0x02C0, r21
     700:	60 93 c1 02 	sts	0x02C1, r22
     704:	70 93 c2 02 	sts	0x02C2, r23
			txFrame.data[4] = w_rpm;
     708:	8f 83       	std	Y+7, r24	; 0x07
			
			can_send_message(&txFrame);
     70a:	ce 01       	movw	r24, r28
     70c:	29 de       	rcall	.-942    	; 0x360 <can_send_message>
			state = MEASURE;
			timer_start(TIMER0);
     70e:	80 e0       	ldi	r24, 0x00	; 0
     710:	a6 de       	rcall	.-692    	; 0x45e <timer_start>
			
			sei();
     712:	78 94       	sei
			
			break;
     714:	8d b7       	in	r24, 0x3d	; 61
     716:	9e b7       	in	r25, 0x3e	; 62
     718:	0c 96       	adiw	r24, 0x0c	; 12
     71a:	0f b6       	in	r0, 0x3f	; 63
     71c:	f8 94       	cli
     71e:	9e bf       	out	0x3e, r25	; 62
     720:	0f be       	out	0x3f, r0	; 63
     722:	8d bf       	out	0x3d, r24	; 61
     724:	7e cf       	rjmp	.-260    	; 0x622 <main+0x3e>
		case MEASURE:
			//Encoder 1
			if (!(PINF&(1<<ENCODER_I_1)) && (m1_state == 0))
     726:	78 99       	sbic	0x0f, 0	; 15
     728:	1a c0       	rjmp	.+52     	; 0x75e <main+0x17a>
     72a:	80 91 be 02 	lds	r24, 0x02BE
     72e:	81 11       	cpse	r24, r1
     730:	20 c0       	rjmp	.+64     	; 0x772 <main+0x18e>
			{
				m1_counts++;
     732:	80 91 ba 02 	lds	r24, 0x02BA
     736:	90 91 bb 02 	lds	r25, 0x02BB
     73a:	a0 91 bc 02 	lds	r26, 0x02BC
     73e:	b0 91 bd 02 	lds	r27, 0x02BD
     742:	01 96       	adiw	r24, 0x01	; 1
     744:	a1 1d       	adc	r26, r1
     746:	b1 1d       	adc	r27, r1
     748:	80 93 ba 02 	sts	0x02BA, r24
     74c:	90 93 bb 02 	sts	0x02BB, r25
     750:	a0 93 bc 02 	sts	0x02BC, r26
     754:	b0 93 bd 02 	sts	0x02BD, r27
				m1_state = 1;
     758:	d0 92 be 02 	sts	0x02BE, r13
     75c:	62 cf       	rjmp	.-316    	; 0x622 <main+0x3e>
			} else if ((PINF &(1<<ENCODER_I_1)) && m1_state)
     75e:	78 9b       	sbis	0x0f, 0	; 15
     760:	60 cf       	rjmp	.-320    	; 0x622 <main+0x3e>
     762:	80 91 be 02 	lds	r24, 0x02BE
     766:	88 23       	and	r24, r24
     768:	09 f4       	brne	.+2      	; 0x76c <main+0x188>
     76a:	5b cf       	rjmp	.-330    	; 0x622 <main+0x3e>
			{
				m1_state = 0;
     76c:	10 92 be 02 	sts	0x02BE, r1
     770:	58 cf       	rjmp	.-336    	; 0x622 <main+0x3e>
			//Encoder 1
			if (!(PINF&(1<<ENCODER_I_1)) && (m1_state == 0))
			{
				m1_counts++;
				m1_state = 1;
			} else if ((PINF &(1<<ENCODER_I_1)) && m1_state)
     772:	78 99       	sbic	0x0f, 0	; 15
     774:	fb cf       	rjmp	.-10     	; 0x76c <main+0x188>
     776:	55 cf       	rjmp	.-342    	; 0x622 <main+0x3e>

00000778 <__vector_15>:
		}
	}
}

ISR(TIMER1_OVF_vect)
{
     778:	1f 92       	push	r1
     77a:	0f 92       	push	r0
     77c:	0f b6       	in	r0, 0x3f	; 63
     77e:	0f 92       	push	r0
     780:	11 24       	eor	r1, r1
	//m1_temp_count += 0xFFFF;
	//TCNT1 = 0;
}
     782:	0f 90       	pop	r0
     784:	0f be       	out	0x3f, r0	; 63
     786:	0f 90       	pop	r0
     788:	1f 90       	pop	r1
     78a:	18 95       	reti

0000078c <__vector_10>:

ISR(TIMER2_OVF_vect)
{
     78c:	1f 92       	push	r1
     78e:	0f 92       	push	r0
     790:	0f b6       	in	r0, 0x3f	; 63
     792:	0f 92       	push	r0
     794:	11 24       	eor	r1, r1
     796:	8f 93       	push	r24
     798:	9f 93       	push	r25
     79a:	af 93       	push	r26
     79c:	bf 93       	push	r27
	w_temp_count += 0xFF;
     79e:	80 91 aa 02 	lds	r24, 0x02AA
     7a2:	90 91 ab 02 	lds	r25, 0x02AB
     7a6:	a0 91 ac 02 	lds	r26, 0x02AC
     7aa:	b0 91 ad 02 	lds	r27, 0x02AD
     7ae:	81 50       	subi	r24, 0x01	; 1
     7b0:	9f 4f       	sbci	r25, 0xFF	; 255
     7b2:	af 4f       	sbci	r26, 0xFF	; 255
     7b4:	bf 4f       	sbci	r27, 0xFF	; 255
     7b6:	80 93 aa 02 	sts	0x02AA, r24
     7ba:	90 93 ab 02 	sts	0x02AB, r25
     7be:	a0 93 ac 02 	sts	0x02AC, r26
     7c2:	b0 93 ad 02 	sts	0x02AD, r27
	TCNT2 = 0;
     7c6:	10 92 b2 00 	sts	0x00B2, r1
}
     7ca:	bf 91       	pop	r27
     7cc:	af 91       	pop	r26
     7ce:	9f 91       	pop	r25
     7d0:	8f 91       	pop	r24
     7d2:	0f 90       	pop	r0
     7d4:	0f be       	out	0x3f, r0	; 63
     7d6:	0f 90       	pop	r0
     7d8:	1f 90       	pop	r1
     7da:	18 95       	reti

000007dc <__vector_31>:

ISR(TIMER3_OVF_vect)
{
     7dc:	1f 92       	push	r1
     7de:	0f 92       	push	r0
     7e0:	0f b6       	in	r0, 0x3f	; 63
     7e2:	0f 92       	push	r0
     7e4:	11 24       	eor	r1, r1
     7e6:	8f 93       	push	r24
     7e8:	9f 93       	push	r25
     7ea:	af 93       	push	r26
     7ec:	bf 93       	push	r27
	m2_temp_count += 0xFFFF;
     7ee:	80 91 ae 02 	lds	r24, 0x02AE
     7f2:	90 91 af 02 	lds	r25, 0x02AF
     7f6:	a0 91 b0 02 	lds	r26, 0x02B0
     7fa:	b0 91 b1 02 	lds	r27, 0x02B1
     7fe:	01 97       	sbiw	r24, 0x01	; 1
     800:	af 4f       	sbci	r26, 0xFF	; 255
     802:	bf 4f       	sbci	r27, 0xFF	; 255
     804:	80 93 ae 02 	sts	0x02AE, r24
     808:	90 93 af 02 	sts	0x02AF, r25
     80c:	a0 93 b0 02 	sts	0x02B0, r26
     810:	b0 93 b1 02 	sts	0x02B1, r27
	TCNT3 = 0;
     814:	10 92 95 00 	sts	0x0095, r1
     818:	10 92 94 00 	sts	0x0094, r1
}
     81c:	bf 91       	pop	r27
     81e:	af 91       	pop	r26
     820:	9f 91       	pop	r25
     822:	8f 91       	pop	r24
     824:	0f 90       	pop	r0
     826:	0f be       	out	0x3f, r0	; 63
     828:	0f 90       	pop	r0
     82a:	1f 90       	pop	r1
     82c:	18 95       	reti

0000082e <__fixunssfsi>:
     82e:	70 d0       	rcall	.+224    	; 0x910 <__fp_splitA>
     830:	88 f0       	brcs	.+34     	; 0x854 <__fixunssfsi+0x26>
     832:	9f 57       	subi	r25, 0x7F	; 127
     834:	90 f0       	brcs	.+36     	; 0x85a <__fixunssfsi+0x2c>
     836:	b9 2f       	mov	r27, r25
     838:	99 27       	eor	r25, r25
     83a:	b7 51       	subi	r27, 0x17	; 23
     83c:	a0 f0       	brcs	.+40     	; 0x866 <__fixunssfsi+0x38>
     83e:	d1 f0       	breq	.+52     	; 0x874 <__fixunssfsi+0x46>
     840:	66 0f       	add	r22, r22
     842:	77 1f       	adc	r23, r23
     844:	88 1f       	adc	r24, r24
     846:	99 1f       	adc	r25, r25
     848:	1a f0       	brmi	.+6      	; 0x850 <__fixunssfsi+0x22>
     84a:	ba 95       	dec	r27
     84c:	c9 f7       	brne	.-14     	; 0x840 <__fixunssfsi+0x12>
     84e:	12 c0       	rjmp	.+36     	; 0x874 <__fixunssfsi+0x46>
     850:	b1 30       	cpi	r27, 0x01	; 1
     852:	81 f0       	breq	.+32     	; 0x874 <__fixunssfsi+0x46>
     854:	77 d0       	rcall	.+238    	; 0x944 <__fp_zero>
     856:	b1 e0       	ldi	r27, 0x01	; 1
     858:	08 95       	ret
     85a:	74 c0       	rjmp	.+232    	; 0x944 <__fp_zero>
     85c:	67 2f       	mov	r22, r23
     85e:	78 2f       	mov	r23, r24
     860:	88 27       	eor	r24, r24
     862:	b8 5f       	subi	r27, 0xF8	; 248
     864:	39 f0       	breq	.+14     	; 0x874 <__fixunssfsi+0x46>
     866:	b9 3f       	cpi	r27, 0xF9	; 249
     868:	cc f3       	brlt	.-14     	; 0x85c <__fixunssfsi+0x2e>
     86a:	86 95       	lsr	r24
     86c:	77 95       	ror	r23
     86e:	67 95       	ror	r22
     870:	b3 95       	inc	r27
     872:	d9 f7       	brne	.-10     	; 0x86a <__fixunssfsi+0x3c>
     874:	3e f4       	brtc	.+14     	; 0x884 <__fixunssfsi+0x56>
     876:	90 95       	com	r25
     878:	80 95       	com	r24
     87a:	70 95       	com	r23
     87c:	61 95       	neg	r22
     87e:	7f 4f       	sbci	r23, 0xFF	; 255
     880:	8f 4f       	sbci	r24, 0xFF	; 255
     882:	9f 4f       	sbci	r25, 0xFF	; 255
     884:	08 95       	ret

00000886 <__floatunsisf>:
     886:	e8 94       	clt
     888:	09 c0       	rjmp	.+18     	; 0x89c <__floatsisf+0x12>

0000088a <__floatsisf>:
     88a:	97 fb       	bst	r25, 7
     88c:	3e f4       	brtc	.+14     	; 0x89c <__floatsisf+0x12>
     88e:	90 95       	com	r25
     890:	80 95       	com	r24
     892:	70 95       	com	r23
     894:	61 95       	neg	r22
     896:	7f 4f       	sbci	r23, 0xFF	; 255
     898:	8f 4f       	sbci	r24, 0xFF	; 255
     89a:	9f 4f       	sbci	r25, 0xFF	; 255
     89c:	99 23       	and	r25, r25
     89e:	a9 f0       	breq	.+42     	; 0x8ca <__floatsisf+0x40>
     8a0:	f9 2f       	mov	r31, r25
     8a2:	96 e9       	ldi	r25, 0x96	; 150
     8a4:	bb 27       	eor	r27, r27
     8a6:	93 95       	inc	r25
     8a8:	f6 95       	lsr	r31
     8aa:	87 95       	ror	r24
     8ac:	77 95       	ror	r23
     8ae:	67 95       	ror	r22
     8b0:	b7 95       	ror	r27
     8b2:	f1 11       	cpse	r31, r1
     8b4:	f8 cf       	rjmp	.-16     	; 0x8a6 <__floatsisf+0x1c>
     8b6:	fa f4       	brpl	.+62     	; 0x8f6 <__floatsisf+0x6c>
     8b8:	bb 0f       	add	r27, r27
     8ba:	11 f4       	brne	.+4      	; 0x8c0 <__floatsisf+0x36>
     8bc:	60 ff       	sbrs	r22, 0
     8be:	1b c0       	rjmp	.+54     	; 0x8f6 <__floatsisf+0x6c>
     8c0:	6f 5f       	subi	r22, 0xFF	; 255
     8c2:	7f 4f       	sbci	r23, 0xFF	; 255
     8c4:	8f 4f       	sbci	r24, 0xFF	; 255
     8c6:	9f 4f       	sbci	r25, 0xFF	; 255
     8c8:	16 c0       	rjmp	.+44     	; 0x8f6 <__floatsisf+0x6c>
     8ca:	88 23       	and	r24, r24
     8cc:	11 f0       	breq	.+4      	; 0x8d2 <__floatsisf+0x48>
     8ce:	96 e9       	ldi	r25, 0x96	; 150
     8d0:	11 c0       	rjmp	.+34     	; 0x8f4 <__floatsisf+0x6a>
     8d2:	77 23       	and	r23, r23
     8d4:	21 f0       	breq	.+8      	; 0x8de <__floatsisf+0x54>
     8d6:	9e e8       	ldi	r25, 0x8E	; 142
     8d8:	87 2f       	mov	r24, r23
     8da:	76 2f       	mov	r23, r22
     8dc:	05 c0       	rjmp	.+10     	; 0x8e8 <__floatsisf+0x5e>
     8de:	66 23       	and	r22, r22
     8e0:	71 f0       	breq	.+28     	; 0x8fe <__floatsisf+0x74>
     8e2:	96 e8       	ldi	r25, 0x86	; 134
     8e4:	86 2f       	mov	r24, r22
     8e6:	70 e0       	ldi	r23, 0x00	; 0
     8e8:	60 e0       	ldi	r22, 0x00	; 0
     8ea:	2a f0       	brmi	.+10     	; 0x8f6 <__floatsisf+0x6c>
     8ec:	9a 95       	dec	r25
     8ee:	66 0f       	add	r22, r22
     8f0:	77 1f       	adc	r23, r23
     8f2:	88 1f       	adc	r24, r24
     8f4:	da f7       	brpl	.-10     	; 0x8ec <__floatsisf+0x62>
     8f6:	88 0f       	add	r24, r24
     8f8:	96 95       	lsr	r25
     8fa:	87 95       	ror	r24
     8fc:	97 f9       	bld	r25, 7
     8fe:	08 95       	ret

00000900 <__fp_split3>:
     900:	57 fd       	sbrc	r21, 7
     902:	90 58       	subi	r25, 0x80	; 128
     904:	44 0f       	add	r20, r20
     906:	55 1f       	adc	r21, r21
     908:	59 f0       	breq	.+22     	; 0x920 <__fp_splitA+0x10>
     90a:	5f 3f       	cpi	r21, 0xFF	; 255
     90c:	71 f0       	breq	.+28     	; 0x92a <__fp_splitA+0x1a>
     90e:	47 95       	ror	r20

00000910 <__fp_splitA>:
     910:	88 0f       	add	r24, r24
     912:	97 fb       	bst	r25, 7
     914:	99 1f       	adc	r25, r25
     916:	61 f0       	breq	.+24     	; 0x930 <__fp_splitA+0x20>
     918:	9f 3f       	cpi	r25, 0xFF	; 255
     91a:	79 f0       	breq	.+30     	; 0x93a <__fp_splitA+0x2a>
     91c:	87 95       	ror	r24
     91e:	08 95       	ret
     920:	12 16       	cp	r1, r18
     922:	13 06       	cpc	r1, r19
     924:	14 06       	cpc	r1, r20
     926:	55 1f       	adc	r21, r21
     928:	f2 cf       	rjmp	.-28     	; 0x90e <__fp_split3+0xe>
     92a:	46 95       	lsr	r20
     92c:	f1 df       	rcall	.-30     	; 0x910 <__fp_splitA>
     92e:	08 c0       	rjmp	.+16     	; 0x940 <__fp_splitA+0x30>
     930:	16 16       	cp	r1, r22
     932:	17 06       	cpc	r1, r23
     934:	18 06       	cpc	r1, r24
     936:	99 1f       	adc	r25, r25
     938:	f1 cf       	rjmp	.-30     	; 0x91c <__fp_splitA+0xc>
     93a:	86 95       	lsr	r24
     93c:	71 05       	cpc	r23, r1
     93e:	61 05       	cpc	r22, r1
     940:	08 94       	sec
     942:	08 95       	ret

00000944 <__fp_zero>:
     944:	e8 94       	clt

00000946 <__fp_szero>:
     946:	bb 27       	eor	r27, r27
     948:	66 27       	eor	r22, r22
     94a:	77 27       	eor	r23, r23
     94c:	cb 01       	movw	r24, r22
     94e:	97 f9       	bld	r25, 7
     950:	08 95       	ret

00000952 <__mulsf3>:
     952:	0b d0       	rcall	.+22     	; 0x96a <__mulsf3x>
     954:	78 c0       	rjmp	.+240    	; 0xa46 <__fp_round>
     956:	69 d0       	rcall	.+210    	; 0xa2a <__fp_pscA>
     958:	28 f0       	brcs	.+10     	; 0x964 <__mulsf3+0x12>
     95a:	6e d0       	rcall	.+220    	; 0xa38 <__fp_pscB>
     95c:	18 f0       	brcs	.+6      	; 0x964 <__mulsf3+0x12>
     95e:	95 23       	and	r25, r21
     960:	09 f0       	breq	.+2      	; 0x964 <__mulsf3+0x12>
     962:	5a c0       	rjmp	.+180    	; 0xa18 <__fp_inf>
     964:	5f c0       	rjmp	.+190    	; 0xa24 <__fp_nan>
     966:	11 24       	eor	r1, r1
     968:	ee cf       	rjmp	.-36     	; 0x946 <__fp_szero>

0000096a <__mulsf3x>:
     96a:	ca df       	rcall	.-108    	; 0x900 <__fp_split3>
     96c:	a0 f3       	brcs	.-24     	; 0x956 <__mulsf3+0x4>

0000096e <__mulsf3_pse>:
     96e:	95 9f       	mul	r25, r21
     970:	d1 f3       	breq	.-12     	; 0x966 <__mulsf3+0x14>
     972:	95 0f       	add	r25, r21
     974:	50 e0       	ldi	r21, 0x00	; 0
     976:	55 1f       	adc	r21, r21
     978:	62 9f       	mul	r22, r18
     97a:	f0 01       	movw	r30, r0
     97c:	72 9f       	mul	r23, r18
     97e:	bb 27       	eor	r27, r27
     980:	f0 0d       	add	r31, r0
     982:	b1 1d       	adc	r27, r1
     984:	63 9f       	mul	r22, r19
     986:	aa 27       	eor	r26, r26
     988:	f0 0d       	add	r31, r0
     98a:	b1 1d       	adc	r27, r1
     98c:	aa 1f       	adc	r26, r26
     98e:	64 9f       	mul	r22, r20
     990:	66 27       	eor	r22, r22
     992:	b0 0d       	add	r27, r0
     994:	a1 1d       	adc	r26, r1
     996:	66 1f       	adc	r22, r22
     998:	82 9f       	mul	r24, r18
     99a:	22 27       	eor	r18, r18
     99c:	b0 0d       	add	r27, r0
     99e:	a1 1d       	adc	r26, r1
     9a0:	62 1f       	adc	r22, r18
     9a2:	73 9f       	mul	r23, r19
     9a4:	b0 0d       	add	r27, r0
     9a6:	a1 1d       	adc	r26, r1
     9a8:	62 1f       	adc	r22, r18
     9aa:	83 9f       	mul	r24, r19
     9ac:	a0 0d       	add	r26, r0
     9ae:	61 1d       	adc	r22, r1
     9b0:	22 1f       	adc	r18, r18
     9b2:	74 9f       	mul	r23, r20
     9b4:	33 27       	eor	r19, r19
     9b6:	a0 0d       	add	r26, r0
     9b8:	61 1d       	adc	r22, r1
     9ba:	23 1f       	adc	r18, r19
     9bc:	84 9f       	mul	r24, r20
     9be:	60 0d       	add	r22, r0
     9c0:	21 1d       	adc	r18, r1
     9c2:	82 2f       	mov	r24, r18
     9c4:	76 2f       	mov	r23, r22
     9c6:	6a 2f       	mov	r22, r26
     9c8:	11 24       	eor	r1, r1
     9ca:	9f 57       	subi	r25, 0x7F	; 127
     9cc:	50 40       	sbci	r21, 0x00	; 0
     9ce:	8a f0       	brmi	.+34     	; 0x9f2 <__mulsf3_pse+0x84>
     9d0:	e1 f0       	breq	.+56     	; 0xa0a <__mulsf3_pse+0x9c>
     9d2:	88 23       	and	r24, r24
     9d4:	4a f0       	brmi	.+18     	; 0x9e8 <__mulsf3_pse+0x7a>
     9d6:	ee 0f       	add	r30, r30
     9d8:	ff 1f       	adc	r31, r31
     9da:	bb 1f       	adc	r27, r27
     9dc:	66 1f       	adc	r22, r22
     9de:	77 1f       	adc	r23, r23
     9e0:	88 1f       	adc	r24, r24
     9e2:	91 50       	subi	r25, 0x01	; 1
     9e4:	50 40       	sbci	r21, 0x00	; 0
     9e6:	a9 f7       	brne	.-22     	; 0x9d2 <__mulsf3_pse+0x64>
     9e8:	9e 3f       	cpi	r25, 0xFE	; 254
     9ea:	51 05       	cpc	r21, r1
     9ec:	70 f0       	brcs	.+28     	; 0xa0a <__mulsf3_pse+0x9c>
     9ee:	14 c0       	rjmp	.+40     	; 0xa18 <__fp_inf>
     9f0:	aa cf       	rjmp	.-172    	; 0x946 <__fp_szero>
     9f2:	5f 3f       	cpi	r21, 0xFF	; 255
     9f4:	ec f3       	brlt	.-6      	; 0x9f0 <__mulsf3_pse+0x82>
     9f6:	98 3e       	cpi	r25, 0xE8	; 232
     9f8:	dc f3       	brlt	.-10     	; 0x9f0 <__mulsf3_pse+0x82>
     9fa:	86 95       	lsr	r24
     9fc:	77 95       	ror	r23
     9fe:	67 95       	ror	r22
     a00:	b7 95       	ror	r27
     a02:	f7 95       	ror	r31
     a04:	e7 95       	ror	r30
     a06:	9f 5f       	subi	r25, 0xFF	; 255
     a08:	c1 f7       	brne	.-16     	; 0x9fa <__mulsf3_pse+0x8c>
     a0a:	fe 2b       	or	r31, r30
     a0c:	88 0f       	add	r24, r24
     a0e:	91 1d       	adc	r25, r1
     a10:	96 95       	lsr	r25
     a12:	87 95       	ror	r24
     a14:	97 f9       	bld	r25, 7
     a16:	08 95       	ret

00000a18 <__fp_inf>:
     a18:	97 f9       	bld	r25, 7
     a1a:	9f 67       	ori	r25, 0x7F	; 127
     a1c:	80 e8       	ldi	r24, 0x80	; 128
     a1e:	70 e0       	ldi	r23, 0x00	; 0
     a20:	60 e0       	ldi	r22, 0x00	; 0
     a22:	08 95       	ret

00000a24 <__fp_nan>:
     a24:	9f ef       	ldi	r25, 0xFF	; 255
     a26:	80 ec       	ldi	r24, 0xC0	; 192
     a28:	08 95       	ret

00000a2a <__fp_pscA>:
     a2a:	00 24       	eor	r0, r0
     a2c:	0a 94       	dec	r0
     a2e:	16 16       	cp	r1, r22
     a30:	17 06       	cpc	r1, r23
     a32:	18 06       	cpc	r1, r24
     a34:	09 06       	cpc	r0, r25
     a36:	08 95       	ret

00000a38 <__fp_pscB>:
     a38:	00 24       	eor	r0, r0
     a3a:	0a 94       	dec	r0
     a3c:	12 16       	cp	r1, r18
     a3e:	13 06       	cpc	r1, r19
     a40:	14 06       	cpc	r1, r20
     a42:	05 06       	cpc	r0, r21
     a44:	08 95       	ret

00000a46 <__fp_round>:
     a46:	09 2e       	mov	r0, r25
     a48:	03 94       	inc	r0
     a4a:	00 0c       	add	r0, r0
     a4c:	11 f4       	brne	.+4      	; 0xa52 <__fp_round+0xc>
     a4e:	88 23       	and	r24, r24
     a50:	52 f0       	brmi	.+20     	; 0xa66 <__fp_round+0x20>
     a52:	bb 0f       	add	r27, r27
     a54:	40 f4       	brcc	.+16     	; 0xa66 <__fp_round+0x20>
     a56:	bf 2b       	or	r27, r31
     a58:	11 f4       	brne	.+4      	; 0xa5e <__fp_round+0x18>
     a5a:	60 ff       	sbrs	r22, 0
     a5c:	04 c0       	rjmp	.+8      	; 0xa66 <__fp_round+0x20>
     a5e:	6f 5f       	subi	r22, 0xFF	; 255
     a60:	7f 4f       	sbci	r23, 0xFF	; 255
     a62:	8f 4f       	sbci	r24, 0xFF	; 255
     a64:	9f 4f       	sbci	r25, 0xFF	; 255
     a66:	08 95       	ret

00000a68 <__udivmodsi4>:
     a68:	a1 e2       	ldi	r26, 0x21	; 33
     a6a:	1a 2e       	mov	r1, r26
     a6c:	aa 1b       	sub	r26, r26
     a6e:	bb 1b       	sub	r27, r27
     a70:	fd 01       	movw	r30, r26
     a72:	0d c0       	rjmp	.+26     	; 0xa8e <__udivmodsi4_ep>

00000a74 <__udivmodsi4_loop>:
     a74:	aa 1f       	adc	r26, r26
     a76:	bb 1f       	adc	r27, r27
     a78:	ee 1f       	adc	r30, r30
     a7a:	ff 1f       	adc	r31, r31
     a7c:	a2 17       	cp	r26, r18
     a7e:	b3 07       	cpc	r27, r19
     a80:	e4 07       	cpc	r30, r20
     a82:	f5 07       	cpc	r31, r21
     a84:	20 f0       	brcs	.+8      	; 0xa8e <__udivmodsi4_ep>
     a86:	a2 1b       	sub	r26, r18
     a88:	b3 0b       	sbc	r27, r19
     a8a:	e4 0b       	sbc	r30, r20
     a8c:	f5 0b       	sbc	r31, r21

00000a8e <__udivmodsi4_ep>:
     a8e:	66 1f       	adc	r22, r22
     a90:	77 1f       	adc	r23, r23
     a92:	88 1f       	adc	r24, r24
     a94:	99 1f       	adc	r25, r25
     a96:	1a 94       	dec	r1
     a98:	69 f7       	brne	.-38     	; 0xa74 <__udivmodsi4_loop>
     a9a:	60 95       	com	r22
     a9c:	70 95       	com	r23
     a9e:	80 95       	com	r24
     aa0:	90 95       	com	r25
     aa2:	9b 01       	movw	r18, r22
     aa4:	ac 01       	movw	r20, r24
     aa6:	bd 01       	movw	r22, r26
     aa8:	cf 01       	movw	r24, r30
     aaa:	08 95       	ret

00000aac <fdevopen>:
     aac:	0f 93       	push	r16
     aae:	1f 93       	push	r17
     ab0:	cf 93       	push	r28
     ab2:	df 93       	push	r29
     ab4:	00 97       	sbiw	r24, 0x00	; 0
     ab6:	31 f4       	brne	.+12     	; 0xac4 <fdevopen+0x18>
     ab8:	61 15       	cp	r22, r1
     aba:	71 05       	cpc	r23, r1
     abc:	19 f4       	brne	.+6      	; 0xac4 <fdevopen+0x18>
     abe:	80 e0       	ldi	r24, 0x00	; 0
     ac0:	90 e0       	ldi	r25, 0x00	; 0
     ac2:	39 c0       	rjmp	.+114    	; 0xb36 <fdevopen+0x8a>
     ac4:	8b 01       	movw	r16, r22
     ac6:	ec 01       	movw	r28, r24
     ac8:	6e e0       	ldi	r22, 0x0E	; 14
     aca:	70 e0       	ldi	r23, 0x00	; 0
     acc:	81 e0       	ldi	r24, 0x01	; 1
     ace:	90 e0       	ldi	r25, 0x00	; 0
     ad0:	38 d2       	rcall	.+1136   	; 0xf42 <calloc>
     ad2:	fc 01       	movw	r30, r24
     ad4:	89 2b       	or	r24, r25
     ad6:	99 f3       	breq	.-26     	; 0xabe <fdevopen+0x12>
     ad8:	80 e8       	ldi	r24, 0x80	; 128
     ada:	83 83       	std	Z+3, r24	; 0x03
     adc:	01 15       	cp	r16, r1
     ade:	11 05       	cpc	r17, r1
     ae0:	71 f0       	breq	.+28     	; 0xafe <fdevopen+0x52>
     ae2:	13 87       	std	Z+11, r17	; 0x0b
     ae4:	02 87       	std	Z+10, r16	; 0x0a
     ae6:	81 e8       	ldi	r24, 0x81	; 129
     ae8:	83 83       	std	Z+3, r24	; 0x03
     aea:	80 91 d6 02 	lds	r24, 0x02D6
     aee:	90 91 d7 02 	lds	r25, 0x02D7
     af2:	89 2b       	or	r24, r25
     af4:	21 f4       	brne	.+8      	; 0xafe <fdevopen+0x52>
     af6:	f0 93 d7 02 	sts	0x02D7, r31
     afa:	e0 93 d6 02 	sts	0x02D6, r30
     afe:	20 97       	sbiw	r28, 0x00	; 0
     b00:	c9 f0       	breq	.+50     	; 0xb34 <fdevopen+0x88>
     b02:	d1 87       	std	Z+9, r29	; 0x09
     b04:	c0 87       	std	Z+8, r28	; 0x08
     b06:	83 81       	ldd	r24, Z+3	; 0x03
     b08:	82 60       	ori	r24, 0x02	; 2
     b0a:	83 83       	std	Z+3, r24	; 0x03
     b0c:	80 91 d8 02 	lds	r24, 0x02D8
     b10:	90 91 d9 02 	lds	r25, 0x02D9
     b14:	89 2b       	or	r24, r25
     b16:	71 f4       	brne	.+28     	; 0xb34 <fdevopen+0x88>
     b18:	f0 93 d9 02 	sts	0x02D9, r31
     b1c:	e0 93 d8 02 	sts	0x02D8, r30
     b20:	80 91 da 02 	lds	r24, 0x02DA
     b24:	90 91 db 02 	lds	r25, 0x02DB
     b28:	89 2b       	or	r24, r25
     b2a:	21 f4       	brne	.+8      	; 0xb34 <fdevopen+0x88>
     b2c:	f0 93 db 02 	sts	0x02DB, r31
     b30:	e0 93 da 02 	sts	0x02DA, r30
     b34:	cf 01       	movw	r24, r30
     b36:	df 91       	pop	r29
     b38:	cf 91       	pop	r28
     b3a:	1f 91       	pop	r17
     b3c:	0f 91       	pop	r16
     b3e:	08 95       	ret

00000b40 <printf>:
     b40:	cf 93       	push	r28
     b42:	df 93       	push	r29
     b44:	cd b7       	in	r28, 0x3d	; 61
     b46:	de b7       	in	r29, 0x3e	; 62
     b48:	ae 01       	movw	r20, r28
     b4a:	4b 5f       	subi	r20, 0xFB	; 251
     b4c:	5f 4f       	sbci	r21, 0xFF	; 255
     b4e:	fa 01       	movw	r30, r20
     b50:	61 91       	ld	r22, Z+
     b52:	71 91       	ld	r23, Z+
     b54:	af 01       	movw	r20, r30
     b56:	80 91 d8 02 	lds	r24, 0x02D8
     b5a:	90 91 d9 02 	lds	r25, 0x02D9
     b5e:	03 d0       	rcall	.+6      	; 0xb66 <vfprintf>
     b60:	df 91       	pop	r29
     b62:	cf 91       	pop	r28
     b64:	08 95       	ret

00000b66 <vfprintf>:
     b66:	2f 92       	push	r2
     b68:	3f 92       	push	r3
     b6a:	4f 92       	push	r4
     b6c:	5f 92       	push	r5
     b6e:	6f 92       	push	r6
     b70:	7f 92       	push	r7
     b72:	8f 92       	push	r8
     b74:	9f 92       	push	r9
     b76:	af 92       	push	r10
     b78:	bf 92       	push	r11
     b7a:	cf 92       	push	r12
     b7c:	df 92       	push	r13
     b7e:	ef 92       	push	r14
     b80:	ff 92       	push	r15
     b82:	0f 93       	push	r16
     b84:	1f 93       	push	r17
     b86:	cf 93       	push	r28
     b88:	df 93       	push	r29
     b8a:	cd b7       	in	r28, 0x3d	; 61
     b8c:	de b7       	in	r29, 0x3e	; 62
     b8e:	2c 97       	sbiw	r28, 0x0c	; 12
     b90:	0f b6       	in	r0, 0x3f	; 63
     b92:	f8 94       	cli
     b94:	de bf       	out	0x3e, r29	; 62
     b96:	0f be       	out	0x3f, r0	; 63
     b98:	cd bf       	out	0x3d, r28	; 61
     b9a:	7c 01       	movw	r14, r24
     b9c:	6b 01       	movw	r12, r22
     b9e:	8a 01       	movw	r16, r20
     ba0:	fc 01       	movw	r30, r24
     ba2:	17 82       	std	Z+7, r1	; 0x07
     ba4:	16 82       	std	Z+6, r1	; 0x06
     ba6:	83 81       	ldd	r24, Z+3	; 0x03
     ba8:	81 ff       	sbrs	r24, 1
     baa:	b0 c1       	rjmp	.+864    	; 0xf0c <vfprintf+0x3a6>
     bac:	ce 01       	movw	r24, r28
     bae:	01 96       	adiw	r24, 0x01	; 1
     bb0:	4c 01       	movw	r8, r24
     bb2:	f7 01       	movw	r30, r14
     bb4:	93 81       	ldd	r25, Z+3	; 0x03
     bb6:	f6 01       	movw	r30, r12
     bb8:	93 fd       	sbrc	r25, 3
     bba:	85 91       	lpm	r24, Z+
     bbc:	93 ff       	sbrs	r25, 3
     bbe:	81 91       	ld	r24, Z+
     bc0:	6f 01       	movw	r12, r30
     bc2:	88 23       	and	r24, r24
     bc4:	09 f4       	brne	.+2      	; 0xbc8 <vfprintf+0x62>
     bc6:	9e c1       	rjmp	.+828    	; 0xf04 <vfprintf+0x39e>
     bc8:	85 32       	cpi	r24, 0x25	; 37
     bca:	39 f4       	brne	.+14     	; 0xbda <vfprintf+0x74>
     bcc:	93 fd       	sbrc	r25, 3
     bce:	85 91       	lpm	r24, Z+
     bd0:	93 ff       	sbrs	r25, 3
     bd2:	81 91       	ld	r24, Z+
     bd4:	6f 01       	movw	r12, r30
     bd6:	85 32       	cpi	r24, 0x25	; 37
     bd8:	21 f4       	brne	.+8      	; 0xbe2 <vfprintf+0x7c>
     bda:	b7 01       	movw	r22, r14
     bdc:	90 e0       	ldi	r25, 0x00	; 0
     bde:	15 d3       	rcall	.+1578   	; 0x120a <fputc>
     be0:	e8 cf       	rjmp	.-48     	; 0xbb2 <vfprintf+0x4c>
     be2:	51 2c       	mov	r5, r1
     be4:	31 2c       	mov	r3, r1
     be6:	20 e0       	ldi	r18, 0x00	; 0
     be8:	20 32       	cpi	r18, 0x20	; 32
     bea:	a0 f4       	brcc	.+40     	; 0xc14 <vfprintf+0xae>
     bec:	8b 32       	cpi	r24, 0x2B	; 43
     bee:	69 f0       	breq	.+26     	; 0xc0a <vfprintf+0xa4>
     bf0:	30 f4       	brcc	.+12     	; 0xbfe <vfprintf+0x98>
     bf2:	80 32       	cpi	r24, 0x20	; 32
     bf4:	59 f0       	breq	.+22     	; 0xc0c <vfprintf+0xa6>
     bf6:	83 32       	cpi	r24, 0x23	; 35
     bf8:	69 f4       	brne	.+26     	; 0xc14 <vfprintf+0xae>
     bfa:	20 61       	ori	r18, 0x10	; 16
     bfc:	2c c0       	rjmp	.+88     	; 0xc56 <vfprintf+0xf0>
     bfe:	8d 32       	cpi	r24, 0x2D	; 45
     c00:	39 f0       	breq	.+14     	; 0xc10 <vfprintf+0xaa>
     c02:	80 33       	cpi	r24, 0x30	; 48
     c04:	39 f4       	brne	.+14     	; 0xc14 <vfprintf+0xae>
     c06:	21 60       	ori	r18, 0x01	; 1
     c08:	26 c0       	rjmp	.+76     	; 0xc56 <vfprintf+0xf0>
     c0a:	22 60       	ori	r18, 0x02	; 2
     c0c:	24 60       	ori	r18, 0x04	; 4
     c0e:	23 c0       	rjmp	.+70     	; 0xc56 <vfprintf+0xf0>
     c10:	28 60       	ori	r18, 0x08	; 8
     c12:	21 c0       	rjmp	.+66     	; 0xc56 <vfprintf+0xf0>
     c14:	27 fd       	sbrc	r18, 7
     c16:	27 c0       	rjmp	.+78     	; 0xc66 <vfprintf+0x100>
     c18:	30 ed       	ldi	r19, 0xD0	; 208
     c1a:	38 0f       	add	r19, r24
     c1c:	3a 30       	cpi	r19, 0x0A	; 10
     c1e:	78 f4       	brcc	.+30     	; 0xc3e <vfprintf+0xd8>
     c20:	26 ff       	sbrs	r18, 6
     c22:	06 c0       	rjmp	.+12     	; 0xc30 <vfprintf+0xca>
     c24:	fa e0       	ldi	r31, 0x0A	; 10
     c26:	5f 9e       	mul	r5, r31
     c28:	30 0d       	add	r19, r0
     c2a:	11 24       	eor	r1, r1
     c2c:	53 2e       	mov	r5, r19
     c2e:	13 c0       	rjmp	.+38     	; 0xc56 <vfprintf+0xf0>
     c30:	8a e0       	ldi	r24, 0x0A	; 10
     c32:	38 9e       	mul	r3, r24
     c34:	30 0d       	add	r19, r0
     c36:	11 24       	eor	r1, r1
     c38:	33 2e       	mov	r3, r19
     c3a:	20 62       	ori	r18, 0x20	; 32
     c3c:	0c c0       	rjmp	.+24     	; 0xc56 <vfprintf+0xf0>
     c3e:	8e 32       	cpi	r24, 0x2E	; 46
     c40:	21 f4       	brne	.+8      	; 0xc4a <vfprintf+0xe4>
     c42:	26 fd       	sbrc	r18, 6
     c44:	5f c1       	rjmp	.+702    	; 0xf04 <vfprintf+0x39e>
     c46:	20 64       	ori	r18, 0x40	; 64
     c48:	06 c0       	rjmp	.+12     	; 0xc56 <vfprintf+0xf0>
     c4a:	8c 36       	cpi	r24, 0x6C	; 108
     c4c:	11 f4       	brne	.+4      	; 0xc52 <vfprintf+0xec>
     c4e:	20 68       	ori	r18, 0x80	; 128
     c50:	02 c0       	rjmp	.+4      	; 0xc56 <vfprintf+0xf0>
     c52:	88 36       	cpi	r24, 0x68	; 104
     c54:	41 f4       	brne	.+16     	; 0xc66 <vfprintf+0x100>
     c56:	f6 01       	movw	r30, r12
     c58:	93 fd       	sbrc	r25, 3
     c5a:	85 91       	lpm	r24, Z+
     c5c:	93 ff       	sbrs	r25, 3
     c5e:	81 91       	ld	r24, Z+
     c60:	6f 01       	movw	r12, r30
     c62:	81 11       	cpse	r24, r1
     c64:	c1 cf       	rjmp	.-126    	; 0xbe8 <vfprintf+0x82>
     c66:	98 2f       	mov	r25, r24
     c68:	9f 7d       	andi	r25, 0xDF	; 223
     c6a:	95 54       	subi	r25, 0x45	; 69
     c6c:	93 30       	cpi	r25, 0x03	; 3
     c6e:	28 f4       	brcc	.+10     	; 0xc7a <vfprintf+0x114>
     c70:	0c 5f       	subi	r16, 0xFC	; 252
     c72:	1f 4f       	sbci	r17, 0xFF	; 255
     c74:	ff e3       	ldi	r31, 0x3F	; 63
     c76:	f9 83       	std	Y+1, r31	; 0x01
     c78:	0d c0       	rjmp	.+26     	; 0xc94 <vfprintf+0x12e>
     c7a:	83 36       	cpi	r24, 0x63	; 99
     c7c:	31 f0       	breq	.+12     	; 0xc8a <vfprintf+0x124>
     c7e:	83 37       	cpi	r24, 0x73	; 115
     c80:	71 f0       	breq	.+28     	; 0xc9e <vfprintf+0x138>
     c82:	83 35       	cpi	r24, 0x53	; 83
     c84:	09 f0       	breq	.+2      	; 0xc88 <vfprintf+0x122>
     c86:	57 c0       	rjmp	.+174    	; 0xd36 <vfprintf+0x1d0>
     c88:	21 c0       	rjmp	.+66     	; 0xccc <vfprintf+0x166>
     c8a:	f8 01       	movw	r30, r16
     c8c:	80 81       	ld	r24, Z
     c8e:	89 83       	std	Y+1, r24	; 0x01
     c90:	0e 5f       	subi	r16, 0xFE	; 254
     c92:	1f 4f       	sbci	r17, 0xFF	; 255
     c94:	44 24       	eor	r4, r4
     c96:	43 94       	inc	r4
     c98:	51 2c       	mov	r5, r1
     c9a:	54 01       	movw	r10, r8
     c9c:	14 c0       	rjmp	.+40     	; 0xcc6 <vfprintf+0x160>
     c9e:	38 01       	movw	r6, r16
     ca0:	f2 e0       	ldi	r31, 0x02	; 2
     ca2:	6f 0e       	add	r6, r31
     ca4:	71 1c       	adc	r7, r1
     ca6:	f8 01       	movw	r30, r16
     ca8:	a0 80       	ld	r10, Z
     caa:	b1 80       	ldd	r11, Z+1	; 0x01
     cac:	26 ff       	sbrs	r18, 6
     cae:	03 c0       	rjmp	.+6      	; 0xcb6 <vfprintf+0x150>
     cb0:	65 2d       	mov	r22, r5
     cb2:	70 e0       	ldi	r23, 0x00	; 0
     cb4:	02 c0       	rjmp	.+4      	; 0xcba <vfprintf+0x154>
     cb6:	6f ef       	ldi	r22, 0xFF	; 255
     cb8:	7f ef       	ldi	r23, 0xFF	; 255
     cba:	c5 01       	movw	r24, r10
     cbc:	2c 87       	std	Y+12, r18	; 0x0c
     cbe:	9a d2       	rcall	.+1332   	; 0x11f4 <strnlen>
     cc0:	2c 01       	movw	r4, r24
     cc2:	83 01       	movw	r16, r6
     cc4:	2c 85       	ldd	r18, Y+12	; 0x0c
     cc6:	2f 77       	andi	r18, 0x7F	; 127
     cc8:	22 2e       	mov	r2, r18
     cca:	16 c0       	rjmp	.+44     	; 0xcf8 <vfprintf+0x192>
     ccc:	38 01       	movw	r6, r16
     cce:	f2 e0       	ldi	r31, 0x02	; 2
     cd0:	6f 0e       	add	r6, r31
     cd2:	71 1c       	adc	r7, r1
     cd4:	f8 01       	movw	r30, r16
     cd6:	a0 80       	ld	r10, Z
     cd8:	b1 80       	ldd	r11, Z+1	; 0x01
     cda:	26 ff       	sbrs	r18, 6
     cdc:	03 c0       	rjmp	.+6      	; 0xce4 <vfprintf+0x17e>
     cde:	65 2d       	mov	r22, r5
     ce0:	70 e0       	ldi	r23, 0x00	; 0
     ce2:	02 c0       	rjmp	.+4      	; 0xce8 <vfprintf+0x182>
     ce4:	6f ef       	ldi	r22, 0xFF	; 255
     ce6:	7f ef       	ldi	r23, 0xFF	; 255
     ce8:	c5 01       	movw	r24, r10
     cea:	2c 87       	std	Y+12, r18	; 0x0c
     cec:	71 d2       	rcall	.+1250   	; 0x11d0 <strnlen_P>
     cee:	2c 01       	movw	r4, r24
     cf0:	2c 85       	ldd	r18, Y+12	; 0x0c
     cf2:	20 68       	ori	r18, 0x80	; 128
     cf4:	22 2e       	mov	r2, r18
     cf6:	83 01       	movw	r16, r6
     cf8:	23 fc       	sbrc	r2, 3
     cfa:	19 c0       	rjmp	.+50     	; 0xd2e <vfprintf+0x1c8>
     cfc:	83 2d       	mov	r24, r3
     cfe:	90 e0       	ldi	r25, 0x00	; 0
     d00:	48 16       	cp	r4, r24
     d02:	59 06       	cpc	r5, r25
     d04:	a0 f4       	brcc	.+40     	; 0xd2e <vfprintf+0x1c8>
     d06:	b7 01       	movw	r22, r14
     d08:	80 e2       	ldi	r24, 0x20	; 32
     d0a:	90 e0       	ldi	r25, 0x00	; 0
     d0c:	7e d2       	rcall	.+1276   	; 0x120a <fputc>
     d0e:	3a 94       	dec	r3
     d10:	f5 cf       	rjmp	.-22     	; 0xcfc <vfprintf+0x196>
     d12:	f5 01       	movw	r30, r10
     d14:	27 fc       	sbrc	r2, 7
     d16:	85 91       	lpm	r24, Z+
     d18:	27 fe       	sbrs	r2, 7
     d1a:	81 91       	ld	r24, Z+
     d1c:	5f 01       	movw	r10, r30
     d1e:	b7 01       	movw	r22, r14
     d20:	90 e0       	ldi	r25, 0x00	; 0
     d22:	73 d2       	rcall	.+1254   	; 0x120a <fputc>
     d24:	31 10       	cpse	r3, r1
     d26:	3a 94       	dec	r3
     d28:	f1 e0       	ldi	r31, 0x01	; 1
     d2a:	4f 1a       	sub	r4, r31
     d2c:	51 08       	sbc	r5, r1
     d2e:	41 14       	cp	r4, r1
     d30:	51 04       	cpc	r5, r1
     d32:	79 f7       	brne	.-34     	; 0xd12 <vfprintf+0x1ac>
     d34:	de c0       	rjmp	.+444    	; 0xef2 <vfprintf+0x38c>
     d36:	84 36       	cpi	r24, 0x64	; 100
     d38:	11 f0       	breq	.+4      	; 0xd3e <vfprintf+0x1d8>
     d3a:	89 36       	cpi	r24, 0x69	; 105
     d3c:	31 f5       	brne	.+76     	; 0xd8a <vfprintf+0x224>
     d3e:	f8 01       	movw	r30, r16
     d40:	27 ff       	sbrs	r18, 7
     d42:	07 c0       	rjmp	.+14     	; 0xd52 <vfprintf+0x1ec>
     d44:	60 81       	ld	r22, Z
     d46:	71 81       	ldd	r23, Z+1	; 0x01
     d48:	82 81       	ldd	r24, Z+2	; 0x02
     d4a:	93 81       	ldd	r25, Z+3	; 0x03
     d4c:	0c 5f       	subi	r16, 0xFC	; 252
     d4e:	1f 4f       	sbci	r17, 0xFF	; 255
     d50:	08 c0       	rjmp	.+16     	; 0xd62 <vfprintf+0x1fc>
     d52:	60 81       	ld	r22, Z
     d54:	71 81       	ldd	r23, Z+1	; 0x01
     d56:	07 2e       	mov	r0, r23
     d58:	00 0c       	add	r0, r0
     d5a:	88 0b       	sbc	r24, r24
     d5c:	99 0b       	sbc	r25, r25
     d5e:	0e 5f       	subi	r16, 0xFE	; 254
     d60:	1f 4f       	sbci	r17, 0xFF	; 255
     d62:	2f 76       	andi	r18, 0x6F	; 111
     d64:	72 2e       	mov	r7, r18
     d66:	97 ff       	sbrs	r25, 7
     d68:	09 c0       	rjmp	.+18     	; 0xd7c <vfprintf+0x216>
     d6a:	90 95       	com	r25
     d6c:	80 95       	com	r24
     d6e:	70 95       	com	r23
     d70:	61 95       	neg	r22
     d72:	7f 4f       	sbci	r23, 0xFF	; 255
     d74:	8f 4f       	sbci	r24, 0xFF	; 255
     d76:	9f 4f       	sbci	r25, 0xFF	; 255
     d78:	20 68       	ori	r18, 0x80	; 128
     d7a:	72 2e       	mov	r7, r18
     d7c:	2a e0       	ldi	r18, 0x0A	; 10
     d7e:	30 e0       	ldi	r19, 0x00	; 0
     d80:	a4 01       	movw	r20, r8
     d82:	7b d2       	rcall	.+1270   	; 0x127a <__ultoa_invert>
     d84:	a8 2e       	mov	r10, r24
     d86:	a8 18       	sub	r10, r8
     d88:	43 c0       	rjmp	.+134    	; 0xe10 <vfprintf+0x2aa>
     d8a:	85 37       	cpi	r24, 0x75	; 117
     d8c:	29 f4       	brne	.+10     	; 0xd98 <vfprintf+0x232>
     d8e:	2f 7e       	andi	r18, 0xEF	; 239
     d90:	b2 2e       	mov	r11, r18
     d92:	2a e0       	ldi	r18, 0x0A	; 10
     d94:	30 e0       	ldi	r19, 0x00	; 0
     d96:	25 c0       	rjmp	.+74     	; 0xde2 <vfprintf+0x27c>
     d98:	f2 2f       	mov	r31, r18
     d9a:	f9 7f       	andi	r31, 0xF9	; 249
     d9c:	bf 2e       	mov	r11, r31
     d9e:	8f 36       	cpi	r24, 0x6F	; 111
     da0:	c1 f0       	breq	.+48     	; 0xdd2 <vfprintf+0x26c>
     da2:	18 f4       	brcc	.+6      	; 0xdaa <vfprintf+0x244>
     da4:	88 35       	cpi	r24, 0x58	; 88
     da6:	79 f0       	breq	.+30     	; 0xdc6 <vfprintf+0x260>
     da8:	ad c0       	rjmp	.+346    	; 0xf04 <vfprintf+0x39e>
     daa:	80 37       	cpi	r24, 0x70	; 112
     dac:	19 f0       	breq	.+6      	; 0xdb4 <vfprintf+0x24e>
     dae:	88 37       	cpi	r24, 0x78	; 120
     db0:	21 f0       	breq	.+8      	; 0xdba <vfprintf+0x254>
     db2:	a8 c0       	rjmp	.+336    	; 0xf04 <vfprintf+0x39e>
     db4:	2f 2f       	mov	r18, r31
     db6:	20 61       	ori	r18, 0x10	; 16
     db8:	b2 2e       	mov	r11, r18
     dba:	b4 fe       	sbrs	r11, 4
     dbc:	0d c0       	rjmp	.+26     	; 0xdd8 <vfprintf+0x272>
     dbe:	8b 2d       	mov	r24, r11
     dc0:	84 60       	ori	r24, 0x04	; 4
     dc2:	b8 2e       	mov	r11, r24
     dc4:	09 c0       	rjmp	.+18     	; 0xdd8 <vfprintf+0x272>
     dc6:	24 ff       	sbrs	r18, 4
     dc8:	0a c0       	rjmp	.+20     	; 0xdde <vfprintf+0x278>
     dca:	9f 2f       	mov	r25, r31
     dcc:	96 60       	ori	r25, 0x06	; 6
     dce:	b9 2e       	mov	r11, r25
     dd0:	06 c0       	rjmp	.+12     	; 0xdde <vfprintf+0x278>
     dd2:	28 e0       	ldi	r18, 0x08	; 8
     dd4:	30 e0       	ldi	r19, 0x00	; 0
     dd6:	05 c0       	rjmp	.+10     	; 0xde2 <vfprintf+0x27c>
     dd8:	20 e1       	ldi	r18, 0x10	; 16
     dda:	30 e0       	ldi	r19, 0x00	; 0
     ddc:	02 c0       	rjmp	.+4      	; 0xde2 <vfprintf+0x27c>
     dde:	20 e1       	ldi	r18, 0x10	; 16
     de0:	32 e0       	ldi	r19, 0x02	; 2
     de2:	f8 01       	movw	r30, r16
     de4:	b7 fe       	sbrs	r11, 7
     de6:	07 c0       	rjmp	.+14     	; 0xdf6 <vfprintf+0x290>
     de8:	60 81       	ld	r22, Z
     dea:	71 81       	ldd	r23, Z+1	; 0x01
     dec:	82 81       	ldd	r24, Z+2	; 0x02
     dee:	93 81       	ldd	r25, Z+3	; 0x03
     df0:	0c 5f       	subi	r16, 0xFC	; 252
     df2:	1f 4f       	sbci	r17, 0xFF	; 255
     df4:	06 c0       	rjmp	.+12     	; 0xe02 <vfprintf+0x29c>
     df6:	60 81       	ld	r22, Z
     df8:	71 81       	ldd	r23, Z+1	; 0x01
     dfa:	80 e0       	ldi	r24, 0x00	; 0
     dfc:	90 e0       	ldi	r25, 0x00	; 0
     dfe:	0e 5f       	subi	r16, 0xFE	; 254
     e00:	1f 4f       	sbci	r17, 0xFF	; 255
     e02:	a4 01       	movw	r20, r8
     e04:	3a d2       	rcall	.+1140   	; 0x127a <__ultoa_invert>
     e06:	a8 2e       	mov	r10, r24
     e08:	a8 18       	sub	r10, r8
     e0a:	fb 2d       	mov	r31, r11
     e0c:	ff 77       	andi	r31, 0x7F	; 127
     e0e:	7f 2e       	mov	r7, r31
     e10:	76 fe       	sbrs	r7, 6
     e12:	0b c0       	rjmp	.+22     	; 0xe2a <vfprintf+0x2c4>
     e14:	37 2d       	mov	r19, r7
     e16:	3e 7f       	andi	r19, 0xFE	; 254
     e18:	a5 14       	cp	r10, r5
     e1a:	50 f4       	brcc	.+20     	; 0xe30 <vfprintf+0x2ca>
     e1c:	74 fe       	sbrs	r7, 4
     e1e:	0a c0       	rjmp	.+20     	; 0xe34 <vfprintf+0x2ce>
     e20:	72 fc       	sbrc	r7, 2
     e22:	08 c0       	rjmp	.+16     	; 0xe34 <vfprintf+0x2ce>
     e24:	37 2d       	mov	r19, r7
     e26:	3e 7e       	andi	r19, 0xEE	; 238
     e28:	05 c0       	rjmp	.+10     	; 0xe34 <vfprintf+0x2ce>
     e2a:	ba 2c       	mov	r11, r10
     e2c:	37 2d       	mov	r19, r7
     e2e:	03 c0       	rjmp	.+6      	; 0xe36 <vfprintf+0x2d0>
     e30:	ba 2c       	mov	r11, r10
     e32:	01 c0       	rjmp	.+2      	; 0xe36 <vfprintf+0x2d0>
     e34:	b5 2c       	mov	r11, r5
     e36:	34 ff       	sbrs	r19, 4
     e38:	0d c0       	rjmp	.+26     	; 0xe54 <vfprintf+0x2ee>
     e3a:	fe 01       	movw	r30, r28
     e3c:	ea 0d       	add	r30, r10
     e3e:	f1 1d       	adc	r31, r1
     e40:	80 81       	ld	r24, Z
     e42:	80 33       	cpi	r24, 0x30	; 48
     e44:	11 f4       	brne	.+4      	; 0xe4a <vfprintf+0x2e4>
     e46:	39 7e       	andi	r19, 0xE9	; 233
     e48:	09 c0       	rjmp	.+18     	; 0xe5c <vfprintf+0x2f6>
     e4a:	32 ff       	sbrs	r19, 2
     e4c:	06 c0       	rjmp	.+12     	; 0xe5a <vfprintf+0x2f4>
     e4e:	b3 94       	inc	r11
     e50:	b3 94       	inc	r11
     e52:	04 c0       	rjmp	.+8      	; 0xe5c <vfprintf+0x2f6>
     e54:	83 2f       	mov	r24, r19
     e56:	86 78       	andi	r24, 0x86	; 134
     e58:	09 f0       	breq	.+2      	; 0xe5c <vfprintf+0x2f6>
     e5a:	b3 94       	inc	r11
     e5c:	33 fd       	sbrc	r19, 3
     e5e:	12 c0       	rjmp	.+36     	; 0xe84 <vfprintf+0x31e>
     e60:	30 ff       	sbrs	r19, 0
     e62:	06 c0       	rjmp	.+12     	; 0xe70 <vfprintf+0x30a>
     e64:	5a 2c       	mov	r5, r10
     e66:	b3 14       	cp	r11, r3
     e68:	18 f4       	brcc	.+6      	; 0xe70 <vfprintf+0x30a>
     e6a:	53 0c       	add	r5, r3
     e6c:	5b 18       	sub	r5, r11
     e6e:	b3 2c       	mov	r11, r3
     e70:	b3 14       	cp	r11, r3
     e72:	60 f4       	brcc	.+24     	; 0xe8c <vfprintf+0x326>
     e74:	b7 01       	movw	r22, r14
     e76:	80 e2       	ldi	r24, 0x20	; 32
     e78:	90 e0       	ldi	r25, 0x00	; 0
     e7a:	3c 87       	std	Y+12, r19	; 0x0c
     e7c:	c6 d1       	rcall	.+908    	; 0x120a <fputc>
     e7e:	b3 94       	inc	r11
     e80:	3c 85       	ldd	r19, Y+12	; 0x0c
     e82:	f6 cf       	rjmp	.-20     	; 0xe70 <vfprintf+0x30a>
     e84:	b3 14       	cp	r11, r3
     e86:	10 f4       	brcc	.+4      	; 0xe8c <vfprintf+0x326>
     e88:	3b 18       	sub	r3, r11
     e8a:	01 c0       	rjmp	.+2      	; 0xe8e <vfprintf+0x328>
     e8c:	31 2c       	mov	r3, r1
     e8e:	34 ff       	sbrs	r19, 4
     e90:	11 c0       	rjmp	.+34     	; 0xeb4 <vfprintf+0x34e>
     e92:	b7 01       	movw	r22, r14
     e94:	80 e3       	ldi	r24, 0x30	; 48
     e96:	90 e0       	ldi	r25, 0x00	; 0
     e98:	3c 87       	std	Y+12, r19	; 0x0c
     e9a:	b7 d1       	rcall	.+878    	; 0x120a <fputc>
     e9c:	3c 85       	ldd	r19, Y+12	; 0x0c
     e9e:	32 ff       	sbrs	r19, 2
     ea0:	16 c0       	rjmp	.+44     	; 0xece <vfprintf+0x368>
     ea2:	31 fd       	sbrc	r19, 1
     ea4:	03 c0       	rjmp	.+6      	; 0xeac <vfprintf+0x346>
     ea6:	88 e7       	ldi	r24, 0x78	; 120
     ea8:	90 e0       	ldi	r25, 0x00	; 0
     eaa:	02 c0       	rjmp	.+4      	; 0xeb0 <vfprintf+0x34a>
     eac:	88 e5       	ldi	r24, 0x58	; 88
     eae:	90 e0       	ldi	r25, 0x00	; 0
     eb0:	b7 01       	movw	r22, r14
     eb2:	0c c0       	rjmp	.+24     	; 0xecc <vfprintf+0x366>
     eb4:	83 2f       	mov	r24, r19
     eb6:	86 78       	andi	r24, 0x86	; 134
     eb8:	51 f0       	breq	.+20     	; 0xece <vfprintf+0x368>
     eba:	31 ff       	sbrs	r19, 1
     ebc:	02 c0       	rjmp	.+4      	; 0xec2 <vfprintf+0x35c>
     ebe:	8b e2       	ldi	r24, 0x2B	; 43
     ec0:	01 c0       	rjmp	.+2      	; 0xec4 <vfprintf+0x35e>
     ec2:	80 e2       	ldi	r24, 0x20	; 32
     ec4:	37 fd       	sbrc	r19, 7
     ec6:	8d e2       	ldi	r24, 0x2D	; 45
     ec8:	b7 01       	movw	r22, r14
     eca:	90 e0       	ldi	r25, 0x00	; 0
     ecc:	9e d1       	rcall	.+828    	; 0x120a <fputc>
     ece:	a5 14       	cp	r10, r5
     ed0:	30 f4       	brcc	.+12     	; 0xede <vfprintf+0x378>
     ed2:	b7 01       	movw	r22, r14
     ed4:	80 e3       	ldi	r24, 0x30	; 48
     ed6:	90 e0       	ldi	r25, 0x00	; 0
     ed8:	98 d1       	rcall	.+816    	; 0x120a <fputc>
     eda:	5a 94       	dec	r5
     edc:	f8 cf       	rjmp	.-16     	; 0xece <vfprintf+0x368>
     ede:	aa 94       	dec	r10
     ee0:	f4 01       	movw	r30, r8
     ee2:	ea 0d       	add	r30, r10
     ee4:	f1 1d       	adc	r31, r1
     ee6:	80 81       	ld	r24, Z
     ee8:	b7 01       	movw	r22, r14
     eea:	90 e0       	ldi	r25, 0x00	; 0
     eec:	8e d1       	rcall	.+796    	; 0x120a <fputc>
     eee:	a1 10       	cpse	r10, r1
     ef0:	f6 cf       	rjmp	.-20     	; 0xede <vfprintf+0x378>
     ef2:	33 20       	and	r3, r3
     ef4:	09 f4       	brne	.+2      	; 0xef8 <vfprintf+0x392>
     ef6:	5d ce       	rjmp	.-838    	; 0xbb2 <vfprintf+0x4c>
     ef8:	b7 01       	movw	r22, r14
     efa:	80 e2       	ldi	r24, 0x20	; 32
     efc:	90 e0       	ldi	r25, 0x00	; 0
     efe:	85 d1       	rcall	.+778    	; 0x120a <fputc>
     f00:	3a 94       	dec	r3
     f02:	f7 cf       	rjmp	.-18     	; 0xef2 <vfprintf+0x38c>
     f04:	f7 01       	movw	r30, r14
     f06:	86 81       	ldd	r24, Z+6	; 0x06
     f08:	97 81       	ldd	r25, Z+7	; 0x07
     f0a:	02 c0       	rjmp	.+4      	; 0xf10 <vfprintf+0x3aa>
     f0c:	8f ef       	ldi	r24, 0xFF	; 255
     f0e:	9f ef       	ldi	r25, 0xFF	; 255
     f10:	2c 96       	adiw	r28, 0x0c	; 12
     f12:	0f b6       	in	r0, 0x3f	; 63
     f14:	f8 94       	cli
     f16:	de bf       	out	0x3e, r29	; 62
     f18:	0f be       	out	0x3f, r0	; 63
     f1a:	cd bf       	out	0x3d, r28	; 61
     f1c:	df 91       	pop	r29
     f1e:	cf 91       	pop	r28
     f20:	1f 91       	pop	r17
     f22:	0f 91       	pop	r16
     f24:	ff 90       	pop	r15
     f26:	ef 90       	pop	r14
     f28:	df 90       	pop	r13
     f2a:	cf 90       	pop	r12
     f2c:	bf 90       	pop	r11
     f2e:	af 90       	pop	r10
     f30:	9f 90       	pop	r9
     f32:	8f 90       	pop	r8
     f34:	7f 90       	pop	r7
     f36:	6f 90       	pop	r6
     f38:	5f 90       	pop	r5
     f3a:	4f 90       	pop	r4
     f3c:	3f 90       	pop	r3
     f3e:	2f 90       	pop	r2
     f40:	08 95       	ret

00000f42 <calloc>:
     f42:	0f 93       	push	r16
     f44:	1f 93       	push	r17
     f46:	cf 93       	push	r28
     f48:	df 93       	push	r29
     f4a:	86 9f       	mul	r24, r22
     f4c:	80 01       	movw	r16, r0
     f4e:	87 9f       	mul	r24, r23
     f50:	10 0d       	add	r17, r0
     f52:	96 9f       	mul	r25, r22
     f54:	10 0d       	add	r17, r0
     f56:	11 24       	eor	r1, r1
     f58:	c8 01       	movw	r24, r16
     f5a:	0d d0       	rcall	.+26     	; 0xf76 <malloc>
     f5c:	ec 01       	movw	r28, r24
     f5e:	00 97       	sbiw	r24, 0x00	; 0
     f60:	21 f0       	breq	.+8      	; 0xf6a <calloc+0x28>
     f62:	a8 01       	movw	r20, r16
     f64:	60 e0       	ldi	r22, 0x00	; 0
     f66:	70 e0       	ldi	r23, 0x00	; 0
     f68:	3e d1       	rcall	.+636    	; 0x11e6 <memset>
     f6a:	ce 01       	movw	r24, r28
     f6c:	df 91       	pop	r29
     f6e:	cf 91       	pop	r28
     f70:	1f 91       	pop	r17
     f72:	0f 91       	pop	r16
     f74:	08 95       	ret

00000f76 <malloc>:
     f76:	cf 93       	push	r28
     f78:	df 93       	push	r29
     f7a:	82 30       	cpi	r24, 0x02	; 2
     f7c:	91 05       	cpc	r25, r1
     f7e:	10 f4       	brcc	.+4      	; 0xf84 <malloc+0xe>
     f80:	82 e0       	ldi	r24, 0x02	; 2
     f82:	90 e0       	ldi	r25, 0x00	; 0
     f84:	e0 91 de 02 	lds	r30, 0x02DE
     f88:	f0 91 df 02 	lds	r31, 0x02DF
     f8c:	20 e0       	ldi	r18, 0x00	; 0
     f8e:	30 e0       	ldi	r19, 0x00	; 0
     f90:	c0 e0       	ldi	r28, 0x00	; 0
     f92:	d0 e0       	ldi	r29, 0x00	; 0
     f94:	30 97       	sbiw	r30, 0x00	; 0
     f96:	11 f1       	breq	.+68     	; 0xfdc <malloc+0x66>
     f98:	40 81       	ld	r20, Z
     f9a:	51 81       	ldd	r21, Z+1	; 0x01
     f9c:	48 17       	cp	r20, r24
     f9e:	59 07       	cpc	r21, r25
     fa0:	c0 f0       	brcs	.+48     	; 0xfd2 <malloc+0x5c>
     fa2:	48 17       	cp	r20, r24
     fa4:	59 07       	cpc	r21, r25
     fa6:	61 f4       	brne	.+24     	; 0xfc0 <malloc+0x4a>
     fa8:	82 81       	ldd	r24, Z+2	; 0x02
     faa:	93 81       	ldd	r25, Z+3	; 0x03
     fac:	20 97       	sbiw	r28, 0x00	; 0
     fae:	19 f0       	breq	.+6      	; 0xfb6 <malloc+0x40>
     fb0:	9b 83       	std	Y+3, r25	; 0x03
     fb2:	8a 83       	std	Y+2, r24	; 0x02
     fb4:	2b c0       	rjmp	.+86     	; 0x100c <malloc+0x96>
     fb6:	90 93 df 02 	sts	0x02DF, r25
     fba:	80 93 de 02 	sts	0x02DE, r24
     fbe:	26 c0       	rjmp	.+76     	; 0x100c <malloc+0x96>
     fc0:	21 15       	cp	r18, r1
     fc2:	31 05       	cpc	r19, r1
     fc4:	19 f0       	breq	.+6      	; 0xfcc <malloc+0x56>
     fc6:	42 17       	cp	r20, r18
     fc8:	53 07       	cpc	r21, r19
     fca:	18 f4       	brcc	.+6      	; 0xfd2 <malloc+0x5c>
     fcc:	9a 01       	movw	r18, r20
     fce:	be 01       	movw	r22, r28
     fd0:	df 01       	movw	r26, r30
     fd2:	ef 01       	movw	r28, r30
     fd4:	02 80       	ldd	r0, Z+2	; 0x02
     fd6:	f3 81       	ldd	r31, Z+3	; 0x03
     fd8:	e0 2d       	mov	r30, r0
     fda:	dc cf       	rjmp	.-72     	; 0xf94 <malloc+0x1e>
     fdc:	21 15       	cp	r18, r1
     fde:	31 05       	cpc	r19, r1
     fe0:	09 f1       	breq	.+66     	; 0x1024 <malloc+0xae>
     fe2:	28 1b       	sub	r18, r24
     fe4:	39 0b       	sbc	r19, r25
     fe6:	24 30       	cpi	r18, 0x04	; 4
     fe8:	31 05       	cpc	r19, r1
     fea:	90 f4       	brcc	.+36     	; 0x1010 <malloc+0x9a>
     fec:	12 96       	adiw	r26, 0x02	; 2
     fee:	8d 91       	ld	r24, X+
     ff0:	9c 91       	ld	r25, X
     ff2:	13 97       	sbiw	r26, 0x03	; 3
     ff4:	61 15       	cp	r22, r1
     ff6:	71 05       	cpc	r23, r1
     ff8:	21 f0       	breq	.+8      	; 0x1002 <malloc+0x8c>
     ffa:	fb 01       	movw	r30, r22
     ffc:	93 83       	std	Z+3, r25	; 0x03
     ffe:	82 83       	std	Z+2, r24	; 0x02
    1000:	04 c0       	rjmp	.+8      	; 0x100a <malloc+0x94>
    1002:	90 93 df 02 	sts	0x02DF, r25
    1006:	80 93 de 02 	sts	0x02DE, r24
    100a:	fd 01       	movw	r30, r26
    100c:	32 96       	adiw	r30, 0x02	; 2
    100e:	44 c0       	rjmp	.+136    	; 0x1098 <malloc+0x122>
    1010:	fd 01       	movw	r30, r26
    1012:	e2 0f       	add	r30, r18
    1014:	f3 1f       	adc	r31, r19
    1016:	81 93       	st	Z+, r24
    1018:	91 93       	st	Z+, r25
    101a:	22 50       	subi	r18, 0x02	; 2
    101c:	31 09       	sbc	r19, r1
    101e:	2d 93       	st	X+, r18
    1020:	3c 93       	st	X, r19
    1022:	3a c0       	rjmp	.+116    	; 0x1098 <malloc+0x122>
    1024:	20 91 dc 02 	lds	r18, 0x02DC
    1028:	30 91 dd 02 	lds	r19, 0x02DD
    102c:	23 2b       	or	r18, r19
    102e:	41 f4       	brne	.+16     	; 0x1040 <malloc+0xca>
    1030:	20 91 02 01 	lds	r18, 0x0102
    1034:	30 91 03 01 	lds	r19, 0x0103
    1038:	30 93 dd 02 	sts	0x02DD, r19
    103c:	20 93 dc 02 	sts	0x02DC, r18
    1040:	20 91 00 01 	lds	r18, 0x0100
    1044:	30 91 01 01 	lds	r19, 0x0101
    1048:	21 15       	cp	r18, r1
    104a:	31 05       	cpc	r19, r1
    104c:	41 f4       	brne	.+16     	; 0x105e <malloc+0xe8>
    104e:	2d b7       	in	r18, 0x3d	; 61
    1050:	3e b7       	in	r19, 0x3e	; 62
    1052:	40 91 04 01 	lds	r20, 0x0104
    1056:	50 91 05 01 	lds	r21, 0x0105
    105a:	24 1b       	sub	r18, r20
    105c:	35 0b       	sbc	r19, r21
    105e:	e0 91 dc 02 	lds	r30, 0x02DC
    1062:	f0 91 dd 02 	lds	r31, 0x02DD
    1066:	e2 17       	cp	r30, r18
    1068:	f3 07       	cpc	r31, r19
    106a:	a0 f4       	brcc	.+40     	; 0x1094 <malloc+0x11e>
    106c:	2e 1b       	sub	r18, r30
    106e:	3f 0b       	sbc	r19, r31
    1070:	28 17       	cp	r18, r24
    1072:	39 07       	cpc	r19, r25
    1074:	78 f0       	brcs	.+30     	; 0x1094 <malloc+0x11e>
    1076:	ac 01       	movw	r20, r24
    1078:	4e 5f       	subi	r20, 0xFE	; 254
    107a:	5f 4f       	sbci	r21, 0xFF	; 255
    107c:	24 17       	cp	r18, r20
    107e:	35 07       	cpc	r19, r21
    1080:	48 f0       	brcs	.+18     	; 0x1094 <malloc+0x11e>
    1082:	4e 0f       	add	r20, r30
    1084:	5f 1f       	adc	r21, r31
    1086:	50 93 dd 02 	sts	0x02DD, r21
    108a:	40 93 dc 02 	sts	0x02DC, r20
    108e:	81 93       	st	Z+, r24
    1090:	91 93       	st	Z+, r25
    1092:	02 c0       	rjmp	.+4      	; 0x1098 <malloc+0x122>
    1094:	e0 e0       	ldi	r30, 0x00	; 0
    1096:	f0 e0       	ldi	r31, 0x00	; 0
    1098:	cf 01       	movw	r24, r30
    109a:	df 91       	pop	r29
    109c:	cf 91       	pop	r28
    109e:	08 95       	ret

000010a0 <free>:
    10a0:	0f 93       	push	r16
    10a2:	1f 93       	push	r17
    10a4:	cf 93       	push	r28
    10a6:	df 93       	push	r29
    10a8:	00 97       	sbiw	r24, 0x00	; 0
    10aa:	09 f4       	brne	.+2      	; 0x10ae <free+0xe>
    10ac:	8c c0       	rjmp	.+280    	; 0x11c6 <__stack+0xc7>
    10ae:	fc 01       	movw	r30, r24
    10b0:	32 97       	sbiw	r30, 0x02	; 2
    10b2:	13 82       	std	Z+3, r1	; 0x03
    10b4:	12 82       	std	Z+2, r1	; 0x02
    10b6:	00 91 de 02 	lds	r16, 0x02DE
    10ba:	10 91 df 02 	lds	r17, 0x02DF
    10be:	01 15       	cp	r16, r1
    10c0:	11 05       	cpc	r17, r1
    10c2:	81 f4       	brne	.+32     	; 0x10e4 <free+0x44>
    10c4:	20 81       	ld	r18, Z
    10c6:	31 81       	ldd	r19, Z+1	; 0x01
    10c8:	82 0f       	add	r24, r18
    10ca:	93 1f       	adc	r25, r19
    10cc:	20 91 dc 02 	lds	r18, 0x02DC
    10d0:	30 91 dd 02 	lds	r19, 0x02DD
    10d4:	28 17       	cp	r18, r24
    10d6:	39 07       	cpc	r19, r25
    10d8:	79 f5       	brne	.+94     	; 0x1138 <__stack+0x39>
    10da:	f0 93 dd 02 	sts	0x02DD, r31
    10de:	e0 93 dc 02 	sts	0x02DC, r30
    10e2:	71 c0       	rjmp	.+226    	; 0x11c6 <__stack+0xc7>
    10e4:	d8 01       	movw	r26, r16
    10e6:	40 e0       	ldi	r20, 0x00	; 0
    10e8:	50 e0       	ldi	r21, 0x00	; 0
    10ea:	ae 17       	cp	r26, r30
    10ec:	bf 07       	cpc	r27, r31
    10ee:	50 f4       	brcc	.+20     	; 0x1104 <__stack+0x5>
    10f0:	12 96       	adiw	r26, 0x02	; 2
    10f2:	2d 91       	ld	r18, X+
    10f4:	3c 91       	ld	r19, X
    10f6:	13 97       	sbiw	r26, 0x03	; 3
    10f8:	ad 01       	movw	r20, r26
    10fa:	21 15       	cp	r18, r1
    10fc:	31 05       	cpc	r19, r1
    10fe:	09 f1       	breq	.+66     	; 0x1142 <__stack+0x43>
    1100:	d9 01       	movw	r26, r18
    1102:	f3 cf       	rjmp	.-26     	; 0x10ea <free+0x4a>
    1104:	9d 01       	movw	r18, r26
    1106:	da 01       	movw	r26, r20
    1108:	33 83       	std	Z+3, r19	; 0x03
    110a:	22 83       	std	Z+2, r18	; 0x02
    110c:	60 81       	ld	r22, Z
    110e:	71 81       	ldd	r23, Z+1	; 0x01
    1110:	86 0f       	add	r24, r22
    1112:	97 1f       	adc	r25, r23
    1114:	82 17       	cp	r24, r18
    1116:	93 07       	cpc	r25, r19
    1118:	69 f4       	brne	.+26     	; 0x1134 <__stack+0x35>
    111a:	ec 01       	movw	r28, r24
    111c:	28 81       	ld	r18, Y
    111e:	39 81       	ldd	r19, Y+1	; 0x01
    1120:	26 0f       	add	r18, r22
    1122:	37 1f       	adc	r19, r23
    1124:	2e 5f       	subi	r18, 0xFE	; 254
    1126:	3f 4f       	sbci	r19, 0xFF	; 255
    1128:	31 83       	std	Z+1, r19	; 0x01
    112a:	20 83       	st	Z, r18
    112c:	8a 81       	ldd	r24, Y+2	; 0x02
    112e:	9b 81       	ldd	r25, Y+3	; 0x03
    1130:	93 83       	std	Z+3, r25	; 0x03
    1132:	82 83       	std	Z+2, r24	; 0x02
    1134:	45 2b       	or	r20, r21
    1136:	29 f4       	brne	.+10     	; 0x1142 <__stack+0x43>
    1138:	f0 93 df 02 	sts	0x02DF, r31
    113c:	e0 93 de 02 	sts	0x02DE, r30
    1140:	42 c0       	rjmp	.+132    	; 0x11c6 <__stack+0xc7>
    1142:	13 96       	adiw	r26, 0x03	; 3
    1144:	fc 93       	st	X, r31
    1146:	ee 93       	st	-X, r30
    1148:	12 97       	sbiw	r26, 0x02	; 2
    114a:	ed 01       	movw	r28, r26
    114c:	49 91       	ld	r20, Y+
    114e:	59 91       	ld	r21, Y+
    1150:	9e 01       	movw	r18, r28
    1152:	24 0f       	add	r18, r20
    1154:	35 1f       	adc	r19, r21
    1156:	e2 17       	cp	r30, r18
    1158:	f3 07       	cpc	r31, r19
    115a:	71 f4       	brne	.+28     	; 0x1178 <__stack+0x79>
    115c:	80 81       	ld	r24, Z
    115e:	91 81       	ldd	r25, Z+1	; 0x01
    1160:	84 0f       	add	r24, r20
    1162:	95 1f       	adc	r25, r21
    1164:	02 96       	adiw	r24, 0x02	; 2
    1166:	11 96       	adiw	r26, 0x01	; 1
    1168:	9c 93       	st	X, r25
    116a:	8e 93       	st	-X, r24
    116c:	82 81       	ldd	r24, Z+2	; 0x02
    116e:	93 81       	ldd	r25, Z+3	; 0x03
    1170:	13 96       	adiw	r26, 0x03	; 3
    1172:	9c 93       	st	X, r25
    1174:	8e 93       	st	-X, r24
    1176:	12 97       	sbiw	r26, 0x02	; 2
    1178:	e0 e0       	ldi	r30, 0x00	; 0
    117a:	f0 e0       	ldi	r31, 0x00	; 0
    117c:	d8 01       	movw	r26, r16
    117e:	12 96       	adiw	r26, 0x02	; 2
    1180:	8d 91       	ld	r24, X+
    1182:	9c 91       	ld	r25, X
    1184:	13 97       	sbiw	r26, 0x03	; 3
    1186:	00 97       	sbiw	r24, 0x00	; 0
    1188:	19 f0       	breq	.+6      	; 0x1190 <__stack+0x91>
    118a:	f8 01       	movw	r30, r16
    118c:	8c 01       	movw	r16, r24
    118e:	f6 cf       	rjmp	.-20     	; 0x117c <__stack+0x7d>
    1190:	8d 91       	ld	r24, X+
    1192:	9c 91       	ld	r25, X
    1194:	98 01       	movw	r18, r16
    1196:	2e 5f       	subi	r18, 0xFE	; 254
    1198:	3f 4f       	sbci	r19, 0xFF	; 255
    119a:	82 0f       	add	r24, r18
    119c:	93 1f       	adc	r25, r19
    119e:	20 91 dc 02 	lds	r18, 0x02DC
    11a2:	30 91 dd 02 	lds	r19, 0x02DD
    11a6:	28 17       	cp	r18, r24
    11a8:	39 07       	cpc	r19, r25
    11aa:	69 f4       	brne	.+26     	; 0x11c6 <__stack+0xc7>
    11ac:	30 97       	sbiw	r30, 0x00	; 0
    11ae:	29 f4       	brne	.+10     	; 0x11ba <__stack+0xbb>
    11b0:	10 92 df 02 	sts	0x02DF, r1
    11b4:	10 92 de 02 	sts	0x02DE, r1
    11b8:	02 c0       	rjmp	.+4      	; 0x11be <__stack+0xbf>
    11ba:	13 82       	std	Z+3, r1	; 0x03
    11bc:	12 82       	std	Z+2, r1	; 0x02
    11be:	10 93 dd 02 	sts	0x02DD, r17
    11c2:	00 93 dc 02 	sts	0x02DC, r16
    11c6:	df 91       	pop	r29
    11c8:	cf 91       	pop	r28
    11ca:	1f 91       	pop	r17
    11cc:	0f 91       	pop	r16
    11ce:	08 95       	ret

000011d0 <strnlen_P>:
    11d0:	fc 01       	movw	r30, r24
    11d2:	05 90       	lpm	r0, Z+
    11d4:	61 50       	subi	r22, 0x01	; 1
    11d6:	70 40       	sbci	r23, 0x00	; 0
    11d8:	01 10       	cpse	r0, r1
    11da:	d8 f7       	brcc	.-10     	; 0x11d2 <strnlen_P+0x2>
    11dc:	80 95       	com	r24
    11de:	90 95       	com	r25
    11e0:	8e 0f       	add	r24, r30
    11e2:	9f 1f       	adc	r25, r31
    11e4:	08 95       	ret

000011e6 <memset>:
    11e6:	dc 01       	movw	r26, r24
    11e8:	01 c0       	rjmp	.+2      	; 0x11ec <memset+0x6>
    11ea:	6d 93       	st	X+, r22
    11ec:	41 50       	subi	r20, 0x01	; 1
    11ee:	50 40       	sbci	r21, 0x00	; 0
    11f0:	e0 f7       	brcc	.-8      	; 0x11ea <memset+0x4>
    11f2:	08 95       	ret

000011f4 <strnlen>:
    11f4:	fc 01       	movw	r30, r24
    11f6:	61 50       	subi	r22, 0x01	; 1
    11f8:	70 40       	sbci	r23, 0x00	; 0
    11fa:	01 90       	ld	r0, Z+
    11fc:	01 10       	cpse	r0, r1
    11fe:	d8 f7       	brcc	.-10     	; 0x11f6 <strnlen+0x2>
    1200:	80 95       	com	r24
    1202:	90 95       	com	r25
    1204:	8e 0f       	add	r24, r30
    1206:	9f 1f       	adc	r25, r31
    1208:	08 95       	ret

0000120a <fputc>:
    120a:	0f 93       	push	r16
    120c:	1f 93       	push	r17
    120e:	cf 93       	push	r28
    1210:	df 93       	push	r29
    1212:	fb 01       	movw	r30, r22
    1214:	23 81       	ldd	r18, Z+3	; 0x03
    1216:	21 fd       	sbrc	r18, 1
    1218:	03 c0       	rjmp	.+6      	; 0x1220 <fputc+0x16>
    121a:	8f ef       	ldi	r24, 0xFF	; 255
    121c:	9f ef       	ldi	r25, 0xFF	; 255
    121e:	28 c0       	rjmp	.+80     	; 0x1270 <fputc+0x66>
    1220:	22 ff       	sbrs	r18, 2
    1222:	16 c0       	rjmp	.+44     	; 0x1250 <fputc+0x46>
    1224:	46 81       	ldd	r20, Z+6	; 0x06
    1226:	57 81       	ldd	r21, Z+7	; 0x07
    1228:	24 81       	ldd	r18, Z+4	; 0x04
    122a:	35 81       	ldd	r19, Z+5	; 0x05
    122c:	42 17       	cp	r20, r18
    122e:	53 07       	cpc	r21, r19
    1230:	44 f4       	brge	.+16     	; 0x1242 <fputc+0x38>
    1232:	a0 81       	ld	r26, Z
    1234:	b1 81       	ldd	r27, Z+1	; 0x01
    1236:	9d 01       	movw	r18, r26
    1238:	2f 5f       	subi	r18, 0xFF	; 255
    123a:	3f 4f       	sbci	r19, 0xFF	; 255
    123c:	31 83       	std	Z+1, r19	; 0x01
    123e:	20 83       	st	Z, r18
    1240:	8c 93       	st	X, r24
    1242:	26 81       	ldd	r18, Z+6	; 0x06
    1244:	37 81       	ldd	r19, Z+7	; 0x07
    1246:	2f 5f       	subi	r18, 0xFF	; 255
    1248:	3f 4f       	sbci	r19, 0xFF	; 255
    124a:	37 83       	std	Z+7, r19	; 0x07
    124c:	26 83       	std	Z+6, r18	; 0x06
    124e:	10 c0       	rjmp	.+32     	; 0x1270 <fputc+0x66>
    1250:	eb 01       	movw	r28, r22
    1252:	09 2f       	mov	r16, r25
    1254:	18 2f       	mov	r17, r24
    1256:	00 84       	ldd	r0, Z+8	; 0x08
    1258:	f1 85       	ldd	r31, Z+9	; 0x09
    125a:	e0 2d       	mov	r30, r0
    125c:	09 95       	icall
    125e:	89 2b       	or	r24, r25
    1260:	e1 f6       	brne	.-72     	; 0x121a <fputc+0x10>
    1262:	8e 81       	ldd	r24, Y+6	; 0x06
    1264:	9f 81       	ldd	r25, Y+7	; 0x07
    1266:	01 96       	adiw	r24, 0x01	; 1
    1268:	9f 83       	std	Y+7, r25	; 0x07
    126a:	8e 83       	std	Y+6, r24	; 0x06
    126c:	81 2f       	mov	r24, r17
    126e:	90 2f       	mov	r25, r16
    1270:	df 91       	pop	r29
    1272:	cf 91       	pop	r28
    1274:	1f 91       	pop	r17
    1276:	0f 91       	pop	r16
    1278:	08 95       	ret

0000127a <__ultoa_invert>:
    127a:	fa 01       	movw	r30, r20
    127c:	aa 27       	eor	r26, r26
    127e:	28 30       	cpi	r18, 0x08	; 8
    1280:	51 f1       	breq	.+84     	; 0x12d6 <__ultoa_invert+0x5c>
    1282:	20 31       	cpi	r18, 0x10	; 16
    1284:	81 f1       	breq	.+96     	; 0x12e6 <__ultoa_invert+0x6c>
    1286:	e8 94       	clt
    1288:	6f 93       	push	r22
    128a:	6e 7f       	andi	r22, 0xFE	; 254
    128c:	6e 5f       	subi	r22, 0xFE	; 254
    128e:	7f 4f       	sbci	r23, 0xFF	; 255
    1290:	8f 4f       	sbci	r24, 0xFF	; 255
    1292:	9f 4f       	sbci	r25, 0xFF	; 255
    1294:	af 4f       	sbci	r26, 0xFF	; 255
    1296:	b1 e0       	ldi	r27, 0x01	; 1
    1298:	3e d0       	rcall	.+124    	; 0x1316 <__ultoa_invert+0x9c>
    129a:	b4 e0       	ldi	r27, 0x04	; 4
    129c:	3c d0       	rcall	.+120    	; 0x1316 <__ultoa_invert+0x9c>
    129e:	67 0f       	add	r22, r23
    12a0:	78 1f       	adc	r23, r24
    12a2:	89 1f       	adc	r24, r25
    12a4:	9a 1f       	adc	r25, r26
    12a6:	a1 1d       	adc	r26, r1
    12a8:	68 0f       	add	r22, r24
    12aa:	79 1f       	adc	r23, r25
    12ac:	8a 1f       	adc	r24, r26
    12ae:	91 1d       	adc	r25, r1
    12b0:	a1 1d       	adc	r26, r1
    12b2:	6a 0f       	add	r22, r26
    12b4:	71 1d       	adc	r23, r1
    12b6:	81 1d       	adc	r24, r1
    12b8:	91 1d       	adc	r25, r1
    12ba:	a1 1d       	adc	r26, r1
    12bc:	20 d0       	rcall	.+64     	; 0x12fe <__ultoa_invert+0x84>
    12be:	09 f4       	brne	.+2      	; 0x12c2 <__ultoa_invert+0x48>
    12c0:	68 94       	set
    12c2:	3f 91       	pop	r19
    12c4:	2a e0       	ldi	r18, 0x0A	; 10
    12c6:	26 9f       	mul	r18, r22
    12c8:	11 24       	eor	r1, r1
    12ca:	30 19       	sub	r19, r0
    12cc:	30 5d       	subi	r19, 0xD0	; 208
    12ce:	31 93       	st	Z+, r19
    12d0:	de f6       	brtc	.-74     	; 0x1288 <__ultoa_invert+0xe>
    12d2:	cf 01       	movw	r24, r30
    12d4:	08 95       	ret
    12d6:	46 2f       	mov	r20, r22
    12d8:	47 70       	andi	r20, 0x07	; 7
    12da:	40 5d       	subi	r20, 0xD0	; 208
    12dc:	41 93       	st	Z+, r20
    12de:	b3 e0       	ldi	r27, 0x03	; 3
    12e0:	0f d0       	rcall	.+30     	; 0x1300 <__ultoa_invert+0x86>
    12e2:	c9 f7       	brne	.-14     	; 0x12d6 <__ultoa_invert+0x5c>
    12e4:	f6 cf       	rjmp	.-20     	; 0x12d2 <__ultoa_invert+0x58>
    12e6:	46 2f       	mov	r20, r22
    12e8:	4f 70       	andi	r20, 0x0F	; 15
    12ea:	40 5d       	subi	r20, 0xD0	; 208
    12ec:	4a 33       	cpi	r20, 0x3A	; 58
    12ee:	18 f0       	brcs	.+6      	; 0x12f6 <__ultoa_invert+0x7c>
    12f0:	49 5d       	subi	r20, 0xD9	; 217
    12f2:	31 fd       	sbrc	r19, 1
    12f4:	40 52       	subi	r20, 0x20	; 32
    12f6:	41 93       	st	Z+, r20
    12f8:	02 d0       	rcall	.+4      	; 0x12fe <__ultoa_invert+0x84>
    12fa:	a9 f7       	brne	.-22     	; 0x12e6 <__ultoa_invert+0x6c>
    12fc:	ea cf       	rjmp	.-44     	; 0x12d2 <__ultoa_invert+0x58>
    12fe:	b4 e0       	ldi	r27, 0x04	; 4
    1300:	a6 95       	lsr	r26
    1302:	97 95       	ror	r25
    1304:	87 95       	ror	r24
    1306:	77 95       	ror	r23
    1308:	67 95       	ror	r22
    130a:	ba 95       	dec	r27
    130c:	c9 f7       	brne	.-14     	; 0x1300 <__ultoa_invert+0x86>
    130e:	00 97       	sbiw	r24, 0x00	; 0
    1310:	61 05       	cpc	r22, r1
    1312:	71 05       	cpc	r23, r1
    1314:	08 95       	ret
    1316:	9b 01       	movw	r18, r22
    1318:	ac 01       	movw	r20, r24
    131a:	0a 2e       	mov	r0, r26
    131c:	06 94       	lsr	r0
    131e:	57 95       	ror	r21
    1320:	47 95       	ror	r20
    1322:	37 95       	ror	r19
    1324:	27 95       	ror	r18
    1326:	ba 95       	dec	r27
    1328:	c9 f7       	brne	.-14     	; 0x131c <__ultoa_invert+0xa2>
    132a:	62 0f       	add	r22, r18
    132c:	73 1f       	adc	r23, r19
    132e:	84 1f       	adc	r24, r20
    1330:	95 1f       	adc	r25, r21
    1332:	a0 1d       	adc	r26, r0
    1334:	08 95       	ret

00001336 <_exit>:
    1336:	f8 94       	cli

00001338 <__stop_program>:
    1338:	ff cf       	rjmp	.-2      	; 0x1338 <__stop_program>
